   1               		.file	"main.c"
   2               	__SREG__ = 0x3f
   3               	__SP_H__ = 0x3e
   4               	__SP_L__ = 0x3d
   5               	__CCP__  = 0x34
   6               	__tmp_reg__ = 0
   7               	__zero_reg__ = 1
  15               	.Ltext0:
  16               	.global	uartinit
  18               	uartinit:
  19               	.LFB6:
  20               	.LM1:
  21               	/* prologue: function */
  22               	/* frame size = 0 */
  23               	.LM2:
  24 0000 8CE0      		ldi r24,lo8(12)
  25 0002 8093 C400 		sts 196,r24
  26               	.LM3:
  27 0006 E1EC      		ldi r30,lo8(193)
  28 0008 F0E0      		ldi r31,hi8(193)
  29 000a 8081      		ld r24,Z
  30 000c 8869      		ori r24,lo8(-104)
  31 000e 8083      		st Z,r24
  32               	/* epilogue start */
  33               	.LM4:
  34 0010 0895      		ret
  35               	.LFE6:
  37               	.global	uart_trans
  39               	uart_trans:
  40               	.LFB7:
  41               	.LM5:
  42               	.LVL0:
  43               	/* prologue: function */
  44               	/* frame size = 0 */
  45 0012 982F      		mov r25,r24
  46               	.LVL1:
  47               	.L4:
  48               	.LM6:
  49 0014 8091 C000 		lds r24,192
  50 0018 85FF      		sbrs r24,5
  51 001a 00C0      		rjmp .L4
  52               	.LM7:
  53 001c 9093 C600 		sts 198,r25
  54               	/* epilogue start */
  55               	.LM8:
  56 0020 0895      		ret
  57               	.LFE7:
  59               	.global	stransmit0
  61               	stransmit0:
  62               	.LFB8:
  63               	.LM9:
  64               	.LVL2:
  65               	/* prologue: function */
  66               	/* frame size = 0 */
  67 0022 FC01      		movw r30,r24
  68 0024 00C0      		rjmp .L8
  69               	.LVL3:
  70               	.L11:
  71               	.LBB987:
  72               	.LBB988:
  73               	.LM10:
  74 0026 8091 C000 		lds r24,192
  75 002a 85FF      		sbrs r24,5
  76 002c 00C0      		rjmp .L11
  77               	.LBE988:
  78               	.LBE987:
  79               	.LM11:
  80 002e 3196      		adiw r30,1
  81               	.LBB990:
  82               	.LBB989:
  83               	.LM12:
  84 0030 9093 C600 		sts 198,r25
  85               	.LVL4:
  86               	.L8:
  87               	.LBE989:
  88               	.LBE990:
  89               	.LM13:
  90 0034 9081      		ld r25,Z
  91 0036 9923      		tst r25
  92 0038 01F4      		brne .L11
  93               	/* epilogue start */
  94               	.LM14:
  95 003a 0895      		ret
  96               	.LFE8:
  98               	.global	gentempnum
 100               	gentempnum:
 101               	.LFB9:
 102               	.LM15:
 103               	/* prologue: function */
 104               	/* frame size = 0 */
 105               	.L14:
 106               	.LBB991:
 107               	.LBB992:
 108               	.LM16:
 109 003c 8091 C000 		lds r24,192
 110 0040 85FF      		sbrs r24,5
 111 0042 00C0      		rjmp .L14
 112               	.LM17:
 113 0044 8FEE      		ldi r24,lo8(-17)
 114 0046 8093 C600 		sts 198,r24
 115               	.L15:
 116               	.LBE992:
 117               	.LBE991:
 118               	.LBB993:
 119               	.LBB994:
 120               	.LM18:
 121 004a 8091 C000 		lds r24,192
 122 004e 85FF      		sbrs r24,5
 123 0050 00C0      		rjmp .L15
 124               	.LM19:
 125 0052 81E0      		ldi r24,lo8(1)
 126 0054 8093 C600 		sts 198,r24
 127               	.L16:
 128               	.LBE994:
 129               	.LBE993:
 130               	.LBB995:
 131               	.LBB996:
 132               	.LM20:
 133 0058 8091 C000 		lds r24,192
 134 005c 85FF      		sbrs r24,5
 135 005e 00C0      		rjmp .L16
 136               	.LM21:
 137 0060 8FEF      		ldi r24,lo8(-1)
 138 0062 8093 C600 		sts 198,r24
 139               	.L17:
 140               	.LBE996:
 141               	.LBE995:
 142               	.LBB997:
 143               	.LBB998:
 144               	.LM22:
 145 0066 8091 C000 		lds r24,192
 146 006a 85FF      		sbrs r24,5
 147 006c 00C0      		rjmp .L17
 148               	.LM23:
 149 006e 8FEF      		ldi r24,lo8(-1)
 150 0070 8093 C600 		sts 198,r24
 151               	.L18:
 152               	.LBE998:
 153               	.LBE997:
 154               	.LBB999:
 155               	.LBB1000:
 156               	.LM24:
 157 0074 8091 C000 		lds r24,192
 158 0078 85FF      		sbrs r24,5
 159 007a 00C0      		rjmp .L18
 160               	.LM25:
 161 007c 8FEF      		ldi r24,lo8(-1)
 162 007e 8093 C600 		sts 198,r24
 163               	.L19:
 164               	.LBE1000:
 165               	.LBE999:
 166               	.LBB1001:
 167               	.LBB1002:
 168               	.LM26:
 169 0082 8091 C000 		lds r24,192
 170 0086 85FF      		sbrs r24,5
 171 0088 00C0      		rjmp .L19
 172               	.LM27:
 173 008a 8FEF      		ldi r24,lo8(-1)
 174 008c 8093 C600 		sts 198,r24
 175               	.L20:
 176               	.LBE1002:
 177               	.LBE1001:
 178               	.LBB1003:
 179               	.LBB1004:
 180               	.LM28:
 181 0090 8091 C000 		lds r24,192
 182 0094 85FF      		sbrs r24,5
 183 0096 00C0      		rjmp .L20
 184               	.LM29:
 185 0098 81E0      		ldi r24,lo8(1)
 186 009a 8093 C600 		sts 198,r24
 187               	.L21:
 188               	.LBE1004:
 189               	.LBE1003:
 190               	.LBB1005:
 191               	.LBB1006:
 192               	.LM30:
 193 009e 8091 C000 		lds r24,192
 194 00a2 85FF      		sbrs r24,5
 195 00a4 00C0      		rjmp .L21
 196               	.LM31:
 197 00a6 1092 C600 		sts 198,__zero_reg__
 198               	.L22:
 199               	.LBE1006:
 200               	.LBE1005:
 201               	.LBB1007:
 202               	.LBB1008:
 203               	.LM32:
 204 00aa 8091 C000 		lds r24,192
 205 00ae 85FF      		sbrs r24,5
 206 00b0 00C0      		rjmp .L22
 207               	.LM33:
 208 00b2 83E0      		ldi r24,lo8(3)
 209 00b4 8093 C600 		sts 198,r24
 210               	.L23:
 211               	.LBE1008:
 212               	.LBE1007:
 213               	.LBB1009:
 214               	.LBB1010:
 215               	.LM34:
 216 00b8 8091 C000 		lds r24,192
 217 00bc 85FF      		sbrs r24,5
 218 00be 00C0      		rjmp .L23
 219               	.LM35:
 220 00c0 8DE1      		ldi r24,lo8(29)
 221 00c2 8093 C600 		sts 198,r24
 222               	.L24:
 223               	.LBE1010:
 224               	.LBE1009:
 225               	.LBB1011:
 226               	.LBB1012:
 227               	.LM36:
 228 00c6 8091 C000 		lds r24,192
 229 00ca 85FF      		sbrs r24,5
 230 00cc 00C0      		rjmp .L24
 231               	.LM37:
 232 00ce 1092 C600 		sts 198,__zero_reg__
 233               	.L25:
 234               	.LBE1012:
 235               	.LBE1011:
 236               	.LBB1013:
 237               	.LBB1014:
 238               	.LM38:
 239 00d2 8091 C000 		lds r24,192
 240 00d6 85FF      		sbrs r24,5
 241 00d8 00C0      		rjmp .L25
 242               	.LM39:
 243 00da 81E2      		ldi r24,lo8(33)
 244 00dc 8093 C600 		sts 198,r24
 245 00e0 84EF      		ldi r24,lo8(500)
 246 00e2 91E0      		ldi r25,hi8(500)
 247               	.LVL5:
 248               	.LBE1014:
 249               	.LBE1013:
 250               	.LBB1015:
 251               	.LBB1016:
 252               	.LBB1017:
 253               	.LBB1018:
 254               	.LM40:
 255 00e4 28EC      		ldi r18,lo8(200)
 256 00e6 30E0      		ldi r19,hi8(200)
 257               	.L26:
 258 00e8 F901      		movw r30,r18
 259               	.LVL6:
 260               	/* #APP */
 261               	 ;  105 "c:/winavr-20100110/lib/gcc/../../avr/include/util/delay_basic.h" 1
 262 00ea 3197      		1: sbiw r30,1
 263 00ec 01F4      		brne 1b
 264               	 ;  0 "" 2
 265               	/* #NOAPP */
 266               	.LBE1018:
 267               	.LBE1017:
 268               	.LM41:
 269 00ee 0197      		sbiw r24,1
 270               	.LM42:
 271 00f0 01F4      		brne .L26
 272               	/* epilogue start */
 273               	.LBE1016:
 274               	.LBE1015:
 275               	.LM43:
 276 00f2 0895      		ret
 277               	.LFE9:
 279               	.global	emptylib
 281               	emptylib:
 282               	.LFB10:
 283               	.LM44:
 284               	/* prologue: function */
 285               	/* frame size = 0 */
 286               	.L42:
 287               	.LBB1019:
 288               	.LBB1020:
 289               	.LM45:
 290 00f4 8091 C000 		lds r24,192
 291 00f8 85FF      		sbrs r24,5
 292 00fa 00C0      		rjmp .L42
 293               	.LM46:
 294 00fc 8FEE      		ldi r24,lo8(-17)
 295 00fe 8093 C600 		sts 198,r24
 296               	.L43:
 297               	.LBE1020:
 298               	.LBE1019:
 299               	.LBB1021:
 300               	.LBB1022:
 301               	.LM47:
 302 0102 8091 C000 		lds r24,192
 303 0106 85FF      		sbrs r24,5
 304 0108 00C0      		rjmp .L43
 305               	.LM48:
 306 010a 81E0      		ldi r24,lo8(1)
 307 010c 8093 C600 		sts 198,r24
 308               	.L44:
 309               	.LBE1022:
 310               	.LBE1021:
 311               	.LBB1023:
 312               	.LBB1024:
 313               	.LM49:
 314 0110 8091 C000 		lds r24,192
 315 0114 85FF      		sbrs r24,5
 316 0116 00C0      		rjmp .L44
 317               	.LM50:
 318 0118 8FEF      		ldi r24,lo8(-1)
 319 011a 8093 C600 		sts 198,r24
 320               	.L45:
 321               	.LBE1024:
 322               	.LBE1023:
 323               	.LBB1025:
 324               	.LBB1026:
 325               	.LM51:
 326 011e 8091 C000 		lds r24,192
 327 0122 85FF      		sbrs r24,5
 328 0124 00C0      		rjmp .L45
 329               	.LM52:
 330 0126 8FEF      		ldi r24,lo8(-1)
 331 0128 8093 C600 		sts 198,r24
 332               	.L46:
 333               	.LBE1026:
 334               	.LBE1025:
 335               	.LBB1027:
 336               	.LBB1028:
 337               	.LM53:
 338 012c 8091 C000 		lds r24,192
 339 0130 85FF      		sbrs r24,5
 340 0132 00C0      		rjmp .L46
 341               	.LM54:
 342 0134 8FEF      		ldi r24,lo8(-1)
 343 0136 8093 C600 		sts 198,r24
 344               	.L47:
 345               	.LBE1028:
 346               	.LBE1027:
 347               	.LBB1029:
 348               	.LBB1030:
 349               	.LM55:
 350 013a 8091 C000 		lds r24,192
 351 013e 85FF      		sbrs r24,5
 352 0140 00C0      		rjmp .L47
 353               	.LM56:
 354 0142 8FEF      		ldi r24,lo8(-1)
 355 0144 8093 C600 		sts 198,r24
 356               	.L48:
 357               	.LBE1030:
 358               	.LBE1029:
 359               	.LBB1031:
 360               	.LBB1032:
 361               	.LM57:
 362 0148 8091 C000 		lds r24,192
 363 014c 85FF      		sbrs r24,5
 364 014e 00C0      		rjmp .L48
 365               	.LM58:
 366 0150 81E0      		ldi r24,lo8(1)
 367 0152 8093 C600 		sts 198,r24
 368               	.L49:
 369               	.LBE1032:
 370               	.LBE1031:
 371               	.LBB1033:
 372               	.LBB1034:
 373               	.LM59:
 374 0156 8091 C000 		lds r24,192
 375 015a 85FF      		sbrs r24,5
 376 015c 00C0      		rjmp .L49
 377               	.LM60:
 378 015e 1092 C600 		sts 198,__zero_reg__
 379               	.L50:
 380               	.LBE1034:
 381               	.LBE1033:
 382               	.LBB1035:
 383               	.LBB1036:
 384               	.LM61:
 385 0162 8091 C000 		lds r24,192
 386 0166 85FF      		sbrs r24,5
 387 0168 00C0      		rjmp .L50
 388               	.LM62:
 389 016a 83E0      		ldi r24,lo8(3)
 390 016c 8093 C600 		sts 198,r24
 391               	.L51:
 392               	.LBE1036:
 393               	.LBE1035:
 394               	.LBB1037:
 395               	.LBB1038:
 396               	.LM63:
 397 0170 8091 C000 		lds r24,192
 398 0174 85FF      		sbrs r24,5
 399 0176 00C0      		rjmp .L51
 400               	.LM64:
 401 0178 8DE0      		ldi r24,lo8(13)
 402 017a 8093 C600 		sts 198,r24
 403               	.L52:
 404               	.LBE1038:
 405               	.LBE1037:
 406               	.LBB1039:
 407               	.LBB1040:
 408               	.LM65:
 409 017e 8091 C000 		lds r24,192
 410 0182 85FF      		sbrs r24,5
 411 0184 00C0      		rjmp .L52
 412               	.LM66:
 413 0186 1092 C600 		sts 198,__zero_reg__
 414               	.L53:
 415               	.LBE1040:
 416               	.LBE1039:
 417               	.LBB1041:
 418               	.LBB1042:
 419               	.LM67:
 420 018a 8091 C000 		lds r24,192
 421 018e 85FF      		sbrs r24,5
 422 0190 00C0      		rjmp .L53
 423               	.LM68:
 424 0192 81E1      		ldi r24,lo8(17)
 425 0194 8093 C600 		sts 198,r24
 426 0198 84EF      		ldi r24,lo8(500)
 427 019a 91E0      		ldi r25,hi8(500)
 428               	.LVL7:
 429               	.LBE1042:
 430               	.LBE1041:
 431               	.LBB1043:
 432               	.LBB1044:
 433               	.LBB1045:
 434               	.LBB1046:
 435               	.LM69:
 436 019c 28EC      		ldi r18,lo8(200)
 437 019e 30E0      		ldi r19,hi8(200)
 438               	.L54:
 439 01a0 F901      		movw r30,r18
 440               	.LVL8:
 441               	/* #APP */
 442               	 ;  105 "c:/winavr-20100110/lib/gcc/../../avr/include/util/delay_basic.h" 1
 443 01a2 3197      		1: sbiw r30,1
 444 01a4 01F4      		brne 1b
 445               	 ;  0 "" 2
 446               	/* #NOAPP */
 447               	.LBE1046:
 448               	.LBE1045:
 449               	.LM70:
 450 01a6 0197      		sbiw r24,1
 451               	.LM71:
 452 01a8 01F4      		brne .L54
 453               	/* epilogue start */
 454               	.LBE1044:
 455               	.LBE1043:
 456               	.LM72:
 457 01aa 0895      		ret
 458               	.LFE10:
 460               	.global	genimg
 462               	genimg:
 463               	.LFB11:
 464               	.LM73:
 465               	/* prologue: function */
 466               	/* frame size = 0 */
 467               	.L70:
 468               	.LBB1047:
 469               	.LBB1048:
 470               	.LM74:
 471 01ac 8091 C000 		lds r24,192
 472 01b0 85FF      		sbrs r24,5
 473 01b2 00C0      		rjmp .L70
 474               	.LM75:
 475 01b4 8FEE      		ldi r24,lo8(-17)
 476 01b6 8093 C600 		sts 198,r24
 477               	.L71:
 478               	.LBE1048:
 479               	.LBE1047:
 480               	.LBB1049:
 481               	.LBB1050:
 482               	.LM76:
 483 01ba 8091 C000 		lds r24,192
 484 01be 85FF      		sbrs r24,5
 485 01c0 00C0      		rjmp .L71
 486               	.LM77:
 487 01c2 81E0      		ldi r24,lo8(1)
 488 01c4 8093 C600 		sts 198,r24
 489               	.L72:
 490               	.LBE1050:
 491               	.LBE1049:
 492               	.LBB1051:
 493               	.LBB1052:
 494               	.LM78:
 495 01c8 8091 C000 		lds r24,192
 496 01cc 85FF      		sbrs r24,5
 497 01ce 00C0      		rjmp .L72
 498               	.LM79:
 499 01d0 8FEF      		ldi r24,lo8(-1)
 500 01d2 8093 C600 		sts 198,r24
 501               	.L73:
 502               	.LBE1052:
 503               	.LBE1051:
 504               	.LBB1053:
 505               	.LBB1054:
 506               	.LM80:
 507 01d6 8091 C000 		lds r24,192
 508 01da 85FF      		sbrs r24,5
 509 01dc 00C0      		rjmp .L73
 510               	.LM81:
 511 01de 8FEF      		ldi r24,lo8(-1)
 512 01e0 8093 C600 		sts 198,r24
 513               	.L74:
 514               	.LBE1054:
 515               	.LBE1053:
 516               	.LBB1055:
 517               	.LBB1056:
 518               	.LM82:
 519 01e4 8091 C000 		lds r24,192
 520 01e8 85FF      		sbrs r24,5
 521 01ea 00C0      		rjmp .L74
 522               	.LM83:
 523 01ec 8FEF      		ldi r24,lo8(-1)
 524 01ee 8093 C600 		sts 198,r24
 525               	.L75:
 526               	.LBE1056:
 527               	.LBE1055:
 528               	.LBB1057:
 529               	.LBB1058:
 530               	.LM84:
 531 01f2 8091 C000 		lds r24,192
 532 01f6 85FF      		sbrs r24,5
 533 01f8 00C0      		rjmp .L75
 534               	.LM85:
 535 01fa 8FEF      		ldi r24,lo8(-1)
 536 01fc 8093 C600 		sts 198,r24
 537               	.L76:
 538               	.LBE1058:
 539               	.LBE1057:
 540               	.LBB1059:
 541               	.LBB1060:
 542               	.LM86:
 543 0200 8091 C000 		lds r24,192
 544 0204 85FF      		sbrs r24,5
 545 0206 00C0      		rjmp .L76
 546               	.LM87:
 547 0208 81E0      		ldi r24,lo8(1)
 548 020a 8093 C600 		sts 198,r24
 549               	.L77:
 550               	.LBE1060:
 551               	.LBE1059:
 552               	.LBB1061:
 553               	.LBB1062:
 554               	.LM88:
 555 020e 8091 C000 		lds r24,192
 556 0212 85FF      		sbrs r24,5
 557 0214 00C0      		rjmp .L77
 558               	.LM89:
 559 0216 1092 C600 		sts 198,__zero_reg__
 560               	.L78:
 561               	.LBE1062:
 562               	.LBE1061:
 563               	.LBB1063:
 564               	.LBB1064:
 565               	.LM90:
 566 021a 8091 C000 		lds r24,192
 567 021e 85FF      		sbrs r24,5
 568 0220 00C0      		rjmp .L78
 569               	.LM91:
 570 0222 83E0      		ldi r24,lo8(3)
 571 0224 8093 C600 		sts 198,r24
 572               	.L79:
 573               	.LBE1064:
 574               	.LBE1063:
 575               	.LBB1065:
 576               	.LBB1066:
 577               	.LM92:
 578 0228 8091 C000 		lds r24,192
 579 022c 85FF      		sbrs r24,5
 580 022e 00C0      		rjmp .L79
 581               	.LM93:
 582 0230 81E0      		ldi r24,lo8(1)
 583 0232 8093 C600 		sts 198,r24
 584               	.L80:
 585               	.LBE1066:
 586               	.LBE1065:
 587               	.LBB1067:
 588               	.LBB1068:
 589               	.LM94:
 590 0236 8091 C000 		lds r24,192
 591 023a 85FF      		sbrs r24,5
 592 023c 00C0      		rjmp .L80
 593               	.LM95:
 594 023e 1092 C600 		sts 198,__zero_reg__
 595               	.L81:
 596               	.LBE1068:
 597               	.LBE1067:
 598               	.LBB1069:
 599               	.LBB1070:
 600               	.LM96:
 601 0242 8091 C000 		lds r24,192
 602 0246 85FF      		sbrs r24,5
 603 0248 00C0      		rjmp .L81
 604               	.LM97:
 605 024a 85E0      		ldi r24,lo8(5)
 606 024c 8093 C600 		sts 198,r24
 607 0250 84EF      		ldi r24,lo8(500)
 608 0252 91E0      		ldi r25,hi8(500)
 609               	.LVL9:
 610               	.LBE1070:
 611               	.LBE1069:
 612               	.LBB1071:
 613               	.LBB1072:
 614               	.LBB1073:
 615               	.LBB1074:
 616               	.LM98:
 617 0254 28EC      		ldi r18,lo8(200)
 618 0256 30E0      		ldi r19,hi8(200)
 619               	.L82:
 620 0258 F901      		movw r30,r18
 621               	.LVL10:
 622               	/* #APP */
 623               	 ;  105 "c:/winavr-20100110/lib/gcc/../../avr/include/util/delay_basic.h" 1
 624 025a 3197      		1: sbiw r30,1
 625 025c 01F4      		brne 1b
 626               	 ;  0 "" 2
 627               	/* #NOAPP */
 628               	.LBE1074:
 629               	.LBE1073:
 630               	.LM99:
 631 025e 0197      		sbiw r24,1
 632               	.LM100:
 633 0260 01F4      		brne .L82
 634               	/* epilogue start */
 635               	.LBE1072:
 636               	.LBE1071:
 637               	.LM101:
 638 0262 0895      		ret
 639               	.LFE11:
 641               	.global	genchar1
 643               	genchar1:
 644               	.LFB12:
 645               	.LM102:
 646               	/* prologue: function */
 647               	/* frame size = 0 */
 648               	.L98:
 649               	.LBB1075:
 650               	.LBB1076:
 651               	.LM103:
 652 0264 8091 C000 		lds r24,192
 653 0268 85FF      		sbrs r24,5
 654 026a 00C0      		rjmp .L98
 655               	.LM104:
 656 026c 8FEE      		ldi r24,lo8(-17)
 657 026e 8093 C600 		sts 198,r24
 658               	.L99:
 659               	.LBE1076:
 660               	.LBE1075:
 661               	.LBB1077:
 662               	.LBB1078:
 663               	.LM105:
 664 0272 8091 C000 		lds r24,192
 665 0276 85FF      		sbrs r24,5
 666 0278 00C0      		rjmp .L99
 667               	.LM106:
 668 027a 81E0      		ldi r24,lo8(1)
 669 027c 8093 C600 		sts 198,r24
 670               	.L100:
 671               	.LBE1078:
 672               	.LBE1077:
 673               	.LBB1079:
 674               	.LBB1080:
 675               	.LM107:
 676 0280 8091 C000 		lds r24,192
 677 0284 85FF      		sbrs r24,5
 678 0286 00C0      		rjmp .L100
 679               	.LM108:
 680 0288 8FEF      		ldi r24,lo8(-1)
 681 028a 8093 C600 		sts 198,r24
 682               	.L101:
 683               	.LBE1080:
 684               	.LBE1079:
 685               	.LBB1081:
 686               	.LBB1082:
 687               	.LM109:
 688 028e 8091 C000 		lds r24,192
 689 0292 85FF      		sbrs r24,5
 690 0294 00C0      		rjmp .L101
 691               	.LM110:
 692 0296 8FEF      		ldi r24,lo8(-1)
 693 0298 8093 C600 		sts 198,r24
 694               	.L102:
 695               	.LBE1082:
 696               	.LBE1081:
 697               	.LBB1083:
 698               	.LBB1084:
 699               	.LM111:
 700 029c 8091 C000 		lds r24,192
 701 02a0 85FF      		sbrs r24,5
 702 02a2 00C0      		rjmp .L102
 703               	.LM112:
 704 02a4 8FEF      		ldi r24,lo8(-1)
 705 02a6 8093 C600 		sts 198,r24
 706               	.L103:
 707               	.LBE1084:
 708               	.LBE1083:
 709               	.LBB1085:
 710               	.LBB1086:
 711               	.LM113:
 712 02aa 8091 C000 		lds r24,192
 713 02ae 85FF      		sbrs r24,5
 714 02b0 00C0      		rjmp .L103
 715               	.LM114:
 716 02b2 8FEF      		ldi r24,lo8(-1)
 717 02b4 8093 C600 		sts 198,r24
 718               	.L104:
 719               	.LBE1086:
 720               	.LBE1085:
 721               	.LBB1087:
 722               	.LBB1088:
 723               	.LM115:
 724 02b8 8091 C000 		lds r24,192
 725 02bc 85FF      		sbrs r24,5
 726 02be 00C0      		rjmp .L104
 727               	.LM116:
 728 02c0 81E0      		ldi r24,lo8(1)
 729 02c2 8093 C600 		sts 198,r24
 730               	.L105:
 731               	.LBE1088:
 732               	.LBE1087:
 733               	.LBB1089:
 734               	.LBB1090:
 735               	.LM117:
 736 02c6 8091 C000 		lds r24,192
 737 02ca 85FF      		sbrs r24,5
 738 02cc 00C0      		rjmp .L105
 739               	.LM118:
 740 02ce 1092 C600 		sts 198,__zero_reg__
 741               	.L106:
 742               	.LBE1090:
 743               	.LBE1089:
 744               	.LBB1091:
 745               	.LBB1092:
 746               	.LM119:
 747 02d2 8091 C000 		lds r24,192
 748 02d6 85FF      		sbrs r24,5
 749 02d8 00C0      		rjmp .L106
 750               	.LM120:
 751 02da 84E0      		ldi r24,lo8(4)
 752 02dc 8093 C600 		sts 198,r24
 753               	.L107:
 754               	.LBE1092:
 755               	.LBE1091:
 756               	.LBB1093:
 757               	.LBB1094:
 758               	.LM121:
 759 02e0 8091 C000 		lds r24,192
 760 02e4 85FF      		sbrs r24,5
 761 02e6 00C0      		rjmp .L107
 762               	.LM122:
 763 02e8 82E0      		ldi r24,lo8(2)
 764 02ea 8093 C600 		sts 198,r24
 765               	.L108:
 766               	.LBE1094:
 767               	.LBE1093:
 768               	.LBB1095:
 769               	.LBB1096:
 770               	.LM123:
 771 02ee 8091 C000 		lds r24,192
 772 02f2 85FF      		sbrs r24,5
 773 02f4 00C0      		rjmp .L108
 774               	.LM124:
 775 02f6 81E0      		ldi r24,lo8(1)
 776 02f8 8093 C600 		sts 198,r24
 777               	.L109:
 778               	.LBE1096:
 779               	.LBE1095:
 780               	.LBB1097:
 781               	.LBB1098:
 782               	.LM125:
 783 02fc 8091 C000 		lds r24,192
 784 0300 85FF      		sbrs r24,5
 785 0302 00C0      		rjmp .L109
 786               	.LM126:
 787 0304 1092 C600 		sts 198,__zero_reg__
 788               	.L110:
 789               	.LBE1098:
 790               	.LBE1097:
 791               	.LBB1099:
 792               	.LBB1100:
 793               	.LM127:
 794 0308 8091 C000 		lds r24,192
 795 030c 85FF      		sbrs r24,5
 796 030e 00C0      		rjmp .L110
 797               	.LM128:
 798 0310 88E0      		ldi r24,lo8(8)
 799 0312 8093 C600 		sts 198,r24
 800 0316 84EF      		ldi r24,lo8(500)
 801 0318 91E0      		ldi r25,hi8(500)
 802               	.LVL11:
 803               	.LBE1100:
 804               	.LBE1099:
 805               	.LBB1101:
 806               	.LBB1102:
 807               	.LBB1103:
 808               	.LBB1104:
 809               	.LM129:
 810 031a 28EC      		ldi r18,lo8(200)
 811 031c 30E0      		ldi r19,hi8(200)
 812               	.L111:
 813 031e F901      		movw r30,r18
 814               	.LVL12:
 815               	/* #APP */
 816               	 ;  105 "c:/winavr-20100110/lib/gcc/../../avr/include/util/delay_basic.h" 1
 817 0320 3197      		1: sbiw r30,1
 818 0322 01F4      		brne 1b
 819               	 ;  0 "" 2
 820               	/* #NOAPP */
 821               	.LBE1104:
 822               	.LBE1103:
 823               	.LM130:
 824 0324 0197      		sbiw r24,1
 825               	.LM131:
 826 0326 01F4      		brne .L111
 827               	/* epilogue start */
 828               	.LBE1102:
 829               	.LBE1101:
 830               	.LM132:
 831 0328 0895      		ret
 832               	.LFE12:
 834               	.global	genchar2
 836               	genchar2:
 837               	.LFB13:
 838               	.LM133:
 839               	/* prologue: function */
 840               	/* frame size = 0 */
 841               	.L128:
 842               	.LBB1105:
 843               	.LBB1106:
 844               	.LM134:
 845 032a 8091 C000 		lds r24,192
 846 032e 85FF      		sbrs r24,5
 847 0330 00C0      		rjmp .L128
 848               	.LM135:
 849 0332 8FEE      		ldi r24,lo8(-17)
 850 0334 8093 C600 		sts 198,r24
 851               	.L129:
 852               	.LBE1106:
 853               	.LBE1105:
 854               	.LBB1107:
 855               	.LBB1108:
 856               	.LM136:
 857 0338 8091 C000 		lds r24,192
 858 033c 85FF      		sbrs r24,5
 859 033e 00C0      		rjmp .L129
 860               	.LM137:
 861 0340 81E0      		ldi r24,lo8(1)
 862 0342 8093 C600 		sts 198,r24
 863               	.L130:
 864               	.LBE1108:
 865               	.LBE1107:
 866               	.LBB1109:
 867               	.LBB1110:
 868               	.LM138:
 869 0346 8091 C000 		lds r24,192
 870 034a 85FF      		sbrs r24,5
 871 034c 00C0      		rjmp .L130
 872               	.LM139:
 873 034e 8FEF      		ldi r24,lo8(-1)
 874 0350 8093 C600 		sts 198,r24
 875               	.L131:
 876               	.LBE1110:
 877               	.LBE1109:
 878               	.LBB1111:
 879               	.LBB1112:
 880               	.LM140:
 881 0354 8091 C000 		lds r24,192
 882 0358 85FF      		sbrs r24,5
 883 035a 00C0      		rjmp .L131
 884               	.LM141:
 885 035c 8FEF      		ldi r24,lo8(-1)
 886 035e 8093 C600 		sts 198,r24
 887               	.L132:
 888               	.LBE1112:
 889               	.LBE1111:
 890               	.LBB1113:
 891               	.LBB1114:
 892               	.LM142:
 893 0362 8091 C000 		lds r24,192
 894 0366 85FF      		sbrs r24,5
 895 0368 00C0      		rjmp .L132
 896               	.LM143:
 897 036a 8FEF      		ldi r24,lo8(-1)
 898 036c 8093 C600 		sts 198,r24
 899               	.L133:
 900               	.LBE1114:
 901               	.LBE1113:
 902               	.LBB1115:
 903               	.LBB1116:
 904               	.LM144:
 905 0370 8091 C000 		lds r24,192
 906 0374 85FF      		sbrs r24,5
 907 0376 00C0      		rjmp .L133
 908               	.LM145:
 909 0378 8FEF      		ldi r24,lo8(-1)
 910 037a 8093 C600 		sts 198,r24
 911               	.L134:
 912               	.LBE1116:
 913               	.LBE1115:
 914               	.LBB1117:
 915               	.LBB1118:
 916               	.LM146:
 917 037e 8091 C000 		lds r24,192
 918 0382 85FF      		sbrs r24,5
 919 0384 00C0      		rjmp .L134
 920               	.LM147:
 921 0386 81E0      		ldi r24,lo8(1)
 922 0388 8093 C600 		sts 198,r24
 923               	.L135:
 924               	.LBE1118:
 925               	.LBE1117:
 926               	.LBB1119:
 927               	.LBB1120:
 928               	.LM148:
 929 038c 8091 C000 		lds r24,192
 930 0390 85FF      		sbrs r24,5
 931 0392 00C0      		rjmp .L135
 932               	.LM149:
 933 0394 1092 C600 		sts 198,__zero_reg__
 934               	.L136:
 935               	.LBE1120:
 936               	.LBE1119:
 937               	.LBB1121:
 938               	.LBB1122:
 939               	.LM150:
 940 0398 8091 C000 		lds r24,192
 941 039c 85FF      		sbrs r24,5
 942 039e 00C0      		rjmp .L136
 943               	.LM151:
 944 03a0 84E0      		ldi r24,lo8(4)
 945 03a2 8093 C600 		sts 198,r24
 946               	.L137:
 947               	.LBE1122:
 948               	.LBE1121:
 949               	.LBB1123:
 950               	.LBB1124:
 951               	.LM152:
 952 03a6 8091 C000 		lds r24,192
 953 03aa 85FF      		sbrs r24,5
 954 03ac 00C0      		rjmp .L137
 955               	.LM153:
 956 03ae 82E0      		ldi r24,lo8(2)
 957 03b0 8093 C600 		sts 198,r24
 958               	.L138:
 959               	.LBE1124:
 960               	.LBE1123:
 961               	.LBB1125:
 962               	.LBB1126:
 963               	.LM154:
 964 03b4 8091 C000 		lds r24,192
 965 03b8 85FF      		sbrs r24,5
 966 03ba 00C0      		rjmp .L138
 967               	.LM155:
 968 03bc 82E0      		ldi r24,lo8(2)
 969 03be 8093 C600 		sts 198,r24
 970               	.L139:
 971               	.LBE1126:
 972               	.LBE1125:
 973               	.LBB1127:
 974               	.LBB1128:
 975               	.LM156:
 976 03c2 8091 C000 		lds r24,192
 977 03c6 85FF      		sbrs r24,5
 978 03c8 00C0      		rjmp .L139
 979               	.LM157:
 980 03ca 1092 C600 		sts 198,__zero_reg__
 981               	.L140:
 982               	.LBE1128:
 983               	.LBE1127:
 984               	.LBB1129:
 985               	.LBB1130:
 986               	.LM158:
 987 03ce 8091 C000 		lds r24,192
 988 03d2 85FF      		sbrs r24,5
 989 03d4 00C0      		rjmp .L140
 990               	.LM159:
 991 03d6 89E0      		ldi r24,lo8(9)
 992 03d8 8093 C600 		sts 198,r24
 993 03dc 84EF      		ldi r24,lo8(500)
 994 03de 91E0      		ldi r25,hi8(500)
 995               	.LVL13:
 996               	.LBE1130:
 997               	.LBE1129:
 998               	.LBB1131:
 999               	.LBB1132:
 1000               	.LBB1133:
 1001               	.LBB1134:
 1002               	.LM160:
 1003 03e0 28EC      		ldi r18,lo8(200)
 1004 03e2 30E0      		ldi r19,hi8(200)
 1005               	.L141:
 1006 03e4 F901      		movw r30,r18
 1007               	.LVL14:
 1008               	/* #APP */
 1009               	 ;  105 "c:/winavr-20100110/lib/gcc/../../avr/include/util/delay_basic.h" 1
 1010 03e6 3197      		1: sbiw r30,1
 1011 03e8 01F4      		brne 1b
 1012               	 ;  0 "" 2
 1013               	/* #NOAPP */
 1014               	.LBE1134:
 1015               	.LBE1133:
 1016               	.LM161:
 1017 03ea 0197      		sbiw r24,1
 1018               	.LM162:
 1019 03ec 01F4      		brne .L141
 1020               	/* epilogue start */
 1021               	.LBE1132:
 1022               	.LBE1131:
 1023               	.LM163:
 1024 03ee 0895      		ret
 1025               	.LFE13:
 1027               	.global	gentemp
 1029               	gentemp:
 1030               	.LFB14:
 1031               	.LM164:
 1032               	/* prologue: function */
 1033               	/* frame size = 0 */
 1034               	.L158:
 1035               	.LBB1135:
 1036               	.LBB1136:
 1037               	.LM165:
 1038 03f0 8091 C000 		lds r24,192
 1039 03f4 85FF      		sbrs r24,5
 1040 03f6 00C0      		rjmp .L158
 1041               	.LM166:
 1042 03f8 8FEE      		ldi r24,lo8(-17)
 1043 03fa 8093 C600 		sts 198,r24
 1044               	.L159:
 1045               	.LBE1136:
 1046               	.LBE1135:
 1047               	.LBB1137:
 1048               	.LBB1138:
 1049               	.LM167:
 1050 03fe 8091 C000 		lds r24,192
 1051 0402 85FF      		sbrs r24,5
 1052 0404 00C0      		rjmp .L159
 1053               	.LM168:
 1054 0406 81E0      		ldi r24,lo8(1)
 1055 0408 8093 C600 		sts 198,r24
 1056               	.L160:
 1057               	.LBE1138:
 1058               	.LBE1137:
 1059               	.LBB1139:
 1060               	.LBB1140:
 1061               	.LM169:
 1062 040c 8091 C000 		lds r24,192
 1063 0410 85FF      		sbrs r24,5
 1064 0412 00C0      		rjmp .L160
 1065               	.LM170:
 1066 0414 8FEF      		ldi r24,lo8(-1)
 1067 0416 8093 C600 		sts 198,r24
 1068               	.L161:
 1069               	.LBE1140:
 1070               	.LBE1139:
 1071               	.LBB1141:
 1072               	.LBB1142:
 1073               	.LM171:
 1074 041a 8091 C000 		lds r24,192
 1075 041e 85FF      		sbrs r24,5
 1076 0420 00C0      		rjmp .L161
 1077               	.LM172:
 1078 0422 8FEF      		ldi r24,lo8(-1)
 1079 0424 8093 C600 		sts 198,r24
 1080               	.L162:
 1081               	.LBE1142:
 1082               	.LBE1141:
 1083               	.LBB1143:
 1084               	.LBB1144:
 1085               	.LM173:
 1086 0428 8091 C000 		lds r24,192
 1087 042c 85FF      		sbrs r24,5
 1088 042e 00C0      		rjmp .L162
 1089               	.LM174:
 1090 0430 8FEF      		ldi r24,lo8(-1)
 1091 0432 8093 C600 		sts 198,r24
 1092               	.L163:
 1093               	.LBE1144:
 1094               	.LBE1143:
 1095               	.LBB1145:
 1096               	.LBB1146:
 1097               	.LM175:
 1098 0436 8091 C000 		lds r24,192
 1099 043a 85FF      		sbrs r24,5
 1100 043c 00C0      		rjmp .L163
 1101               	.LM176:
 1102 043e 8FEF      		ldi r24,lo8(-1)
 1103 0440 8093 C600 		sts 198,r24
 1104               	.L164:
 1105               	.LBE1146:
 1106               	.LBE1145:
 1107               	.LBB1147:
 1108               	.LBB1148:
 1109               	.LM177:
 1110 0444 8091 C000 		lds r24,192
 1111 0448 85FF      		sbrs r24,5
 1112 044a 00C0      		rjmp .L164
 1113               	.LM178:
 1114 044c 81E0      		ldi r24,lo8(1)
 1115 044e 8093 C600 		sts 198,r24
 1116               	.L165:
 1117               	.LBE1148:
 1118               	.LBE1147:
 1119               	.LBB1149:
 1120               	.LBB1150:
 1121               	.LM179:
 1122 0452 8091 C000 		lds r24,192
 1123 0456 85FF      		sbrs r24,5
 1124 0458 00C0      		rjmp .L165
 1125               	.LM180:
 1126 045a 1092 C600 		sts 198,__zero_reg__
 1127               	.L166:
 1128               	.LBE1150:
 1129               	.LBE1149:
 1130               	.LBB1151:
 1131               	.LBB1152:
 1132               	.LM181:
 1133 045e 8091 C000 		lds r24,192
 1134 0462 85FF      		sbrs r24,5
 1135 0464 00C0      		rjmp .L166
 1136               	.LM182:
 1137 0466 83E0      		ldi r24,lo8(3)
 1138 0468 8093 C600 		sts 198,r24
 1139               	.L167:
 1140               	.LBE1152:
 1141               	.LBE1151:
 1142               	.LBB1153:
 1143               	.LBB1154:
 1144               	.LM183:
 1145 046c 8091 C000 		lds r24,192
 1146 0470 85FF      		sbrs r24,5
 1147 0472 00C0      		rjmp .L167
 1148               	.LM184:
 1149 0474 85E0      		ldi r24,lo8(5)
 1150 0476 8093 C600 		sts 198,r24
 1151               	.L168:
 1152               	.LBE1154:
 1153               	.LBE1153:
 1154               	.LBB1155:
 1155               	.LBB1156:
 1156               	.LM185:
 1157 047a 8091 C000 		lds r24,192
 1158 047e 85FF      		sbrs r24,5
 1159 0480 00C0      		rjmp .L168
 1160               	.LM186:
 1161 0482 1092 C600 		sts 198,__zero_reg__
 1162               	.L169:
 1163               	.LBE1156:
 1164               	.LBE1155:
 1165               	.LBB1157:
 1166               	.LBB1158:
 1167               	.LM187:
 1168 0486 8091 C000 		lds r24,192
 1169 048a 85FF      		sbrs r24,5
 1170 048c 00C0      		rjmp .L169
 1171               	.LM188:
 1172 048e 89E0      		ldi r24,lo8(9)
 1173 0490 8093 C600 		sts 198,r24
 1174 0494 84EF      		ldi r24,lo8(500)
 1175 0496 91E0      		ldi r25,hi8(500)
 1176               	.LVL15:
 1177               	.LBE1158:
 1178               	.LBE1157:
 1179               	.LBB1159:
 1180               	.LBB1160:
 1181               	.LBB1161:
 1182               	.LBB1162:
 1183               	.LM189:
 1184 0498 28EC      		ldi r18,lo8(200)
 1185 049a 30E0      		ldi r19,hi8(200)
 1186               	.L170:
 1187 049c F901      		movw r30,r18
 1188               	.LVL16:
 1189               	/* #APP */
 1190               	 ;  105 "c:/winavr-20100110/lib/gcc/../../avr/include/util/delay_basic.h" 1
 1191 049e 3197      		1: sbiw r30,1
 1192 04a0 01F4      		brne 1b
 1193               	 ;  0 "" 2
 1194               	/* #NOAPP */
 1195               	.LBE1162:
 1196               	.LBE1161:
 1197               	.LM190:
 1198 04a2 0197      		sbiw r24,1
 1199               	.LM191:
 1200 04a4 01F4      		brne .L170
 1201               	/* epilogue start */
 1202               	.LBE1160:
 1203               	.LBE1159:
 1204               	.LM192:
 1205 04a6 0895      		ret
 1206               	.LFE14:
 1208               	.global	searchfing
 1210               	searchfing:
 1211               	.LFB15:
 1212               	.LM193:
 1213               	/* prologue: function */
 1214               	/* frame size = 0 */
 1215               	.L186:
 1216               	.LBB1163:
 1217               	.LBB1164:
 1218               	.LM194:
 1219 04a8 8091 C000 		lds r24,192
 1220 04ac 85FF      		sbrs r24,5
 1221 04ae 00C0      		rjmp .L186
 1222               	.LM195:
 1223 04b0 8FEE      		ldi r24,lo8(-17)
 1224 04b2 8093 C600 		sts 198,r24
 1225               	.L187:
 1226               	.LBE1164:
 1227               	.LBE1163:
 1228               	.LBB1165:
 1229               	.LBB1166:
 1230               	.LM196:
 1231 04b6 8091 C000 		lds r24,192
 1232 04ba 85FF      		sbrs r24,5
 1233 04bc 00C0      		rjmp .L187
 1234               	.LM197:
 1235 04be 81E0      		ldi r24,lo8(1)
 1236 04c0 8093 C600 		sts 198,r24
 1237               	.L188:
 1238               	.LBE1166:
 1239               	.LBE1165:
 1240               	.LBB1167:
 1241               	.LBB1168:
 1242               	.LM198:
 1243 04c4 8091 C000 		lds r24,192
 1244 04c8 85FF      		sbrs r24,5
 1245 04ca 00C0      		rjmp .L188
 1246               	.LM199:
 1247 04cc 8FEF      		ldi r24,lo8(-1)
 1248 04ce 8093 C600 		sts 198,r24
 1249               	.L189:
 1250               	.LBE1168:
 1251               	.LBE1167:
 1252               	.LBB1169:
 1253               	.LBB1170:
 1254               	.LM200:
 1255 04d2 8091 C000 		lds r24,192
 1256 04d6 85FF      		sbrs r24,5
 1257 04d8 00C0      		rjmp .L189
 1258               	.LM201:
 1259 04da 8FEF      		ldi r24,lo8(-1)
 1260 04dc 8093 C600 		sts 198,r24
 1261               	.L190:
 1262               	.LBE1170:
 1263               	.LBE1169:
 1264               	.LBB1171:
 1265               	.LBB1172:
 1266               	.LM202:
 1267 04e0 8091 C000 		lds r24,192
 1268 04e4 85FF      		sbrs r24,5
 1269 04e6 00C0      		rjmp .L190
 1270               	.LM203:
 1271 04e8 8FEF      		ldi r24,lo8(-1)
 1272 04ea 8093 C600 		sts 198,r24
 1273               	.L191:
 1274               	.LBE1172:
 1275               	.LBE1171:
 1276               	.LBB1173:
 1277               	.LBB1174:
 1278               	.LM204:
 1279 04ee 8091 C000 		lds r24,192
 1280 04f2 85FF      		sbrs r24,5
 1281 04f4 00C0      		rjmp .L191
 1282               	.LM205:
 1283 04f6 8FEF      		ldi r24,lo8(-1)
 1284 04f8 8093 C600 		sts 198,r24
 1285               	.L192:
 1286               	.LBE1174:
 1287               	.LBE1173:
 1288               	.LBB1175:
 1289               	.LBB1176:
 1290               	.LM206:
 1291 04fc 8091 C000 		lds r24,192
 1292 0500 85FF      		sbrs r24,5
 1293 0502 00C0      		rjmp .L192
 1294               	.LM207:
 1295 0504 81E0      		ldi r24,lo8(1)
 1296 0506 8093 C600 		sts 198,r24
 1297               	.L193:
 1298               	.LBE1176:
 1299               	.LBE1175:
 1300               	.LBB1177:
 1301               	.LBB1178:
 1302               	.LM208:
 1303 050a 8091 C000 		lds r24,192
 1304 050e 85FF      		sbrs r24,5
 1305 0510 00C0      		rjmp .L193
 1306               	.LM209:
 1307 0512 1092 C600 		sts 198,__zero_reg__
 1308               	.L194:
 1309               	.LBE1178:
 1310               	.LBE1177:
 1311               	.LBB1179:
 1312               	.LBB1180:
 1313               	.LM210:
 1314 0516 8091 C000 		lds r24,192
 1315 051a 85FF      		sbrs r24,5
 1316 051c 00C0      		rjmp .L194
 1317               	.LM211:
 1318 051e 88E0      		ldi r24,lo8(8)
 1319 0520 8093 C600 		sts 198,r24
 1320               	.L195:
 1321               	.LBE1180:
 1322               	.LBE1179:
 1323               	.LBB1181:
 1324               	.LBB1182:
 1325               	.LM212:
 1326 0524 8091 C000 		lds r24,192
 1327 0528 85FF      		sbrs r24,5
 1328 052a 00C0      		rjmp .L195
 1329               	.LM213:
 1330 052c 84E0      		ldi r24,lo8(4)
 1331 052e 8093 C600 		sts 198,r24
 1332               	.L196:
 1333               	.LBE1182:
 1334               	.LBE1181:
 1335               	.LBB1183:
 1336               	.LBB1184:
 1337               	.LM214:
 1338 0532 8091 C000 		lds r24,192
 1339 0536 85FF      		sbrs r24,5
 1340 0538 00C0      		rjmp .L196
 1341               	.LM215:
 1342 053a 81E0      		ldi r24,lo8(1)
 1343 053c 8093 C600 		sts 198,r24
 1344               	.L197:
 1345               	.LBE1184:
 1346               	.LBE1183:
 1347               	.LBB1185:
 1348               	.LBB1186:
 1349               	.LM216:
 1350 0540 8091 C000 		lds r24,192
 1351 0544 85FF      		sbrs r24,5
 1352 0546 00C0      		rjmp .L197
 1353               	.LM217:
 1354 0548 1092 C600 		sts 198,__zero_reg__
 1355               	.L198:
 1356               	.LBE1186:
 1357               	.LBE1185:
 1358               	.LBB1187:
 1359               	.LBB1188:
 1360               	.LM218:
 1361 054c 8091 C000 		lds r24,192
 1362 0550 85FF      		sbrs r24,5
 1363 0552 00C0      		rjmp .L198
 1364               	.LM219:
 1365 0554 1092 C600 		sts 198,__zero_reg__
 1366               	.L199:
 1367               	.LBE1188:
 1368               	.LBE1187:
 1369               	.LBB1189:
 1370               	.LBB1190:
 1371               	.LM220:
 1372 0558 8091 C000 		lds r24,192
 1373 055c 85FF      		sbrs r24,5
 1374 055e 00C0      		rjmp .L199
 1375               	.LM221:
 1376 0560 1092 C600 		sts 198,__zero_reg__
 1377               	.L200:
 1378               	.LBE1190:
 1379               	.LBE1189:
 1380               	.LBB1191:
 1381               	.LBB1192:
 1382               	.LM222:
 1383 0564 8091 C000 		lds r24,192
 1384 0568 85FF      		sbrs r24,5
 1385 056a 00C0      		rjmp .L200
 1386               	.LM223:
 1387 056c 8FE0      		ldi r24,lo8(15)
 1388 056e 8093 C600 		sts 198,r24
 1389               	.L201:
 1390               	.LBE1192:
 1391               	.LBE1191:
 1392               	.LBB1193:
 1393               	.LBB1194:
 1394               	.LM224:
 1395 0572 8091 C000 		lds r24,192
 1396 0576 85FF      		sbrs r24,5
 1397 0578 00C0      		rjmp .L201
 1398               	.LM225:
 1399 057a 1092 C600 		sts 198,__zero_reg__
 1400               	.L202:
 1401               	.LBE1194:
 1402               	.LBE1193:
 1403               	.LBB1195:
 1404               	.LBB1196:
 1405               	.LM226:
 1406 057e 8091 C000 		lds r24,192
 1407 0582 85FF      		sbrs r24,5
 1408 0584 00C0      		rjmp .L202
 1409               	.LM227:
 1410 0586 8DE1      		ldi r24,lo8(29)
 1411 0588 8093 C600 		sts 198,r24
 1412 058c 84EF      		ldi r24,lo8(500)
 1413 058e 91E0      		ldi r25,hi8(500)
 1414               	.LVL17:
 1415               	.LBE1196:
 1416               	.LBE1195:
 1417               	.LBB1197:
 1418               	.LBB1198:
 1419               	.LBB1199:
 1420               	.LBB1200:
 1421               	.LM228:
 1422 0590 28EC      		ldi r18,lo8(200)
 1423 0592 30E0      		ldi r19,hi8(200)
 1424               	.L203:
 1425 0594 F901      		movw r30,r18
 1426               	.LVL18:
 1427               	/* #APP */
 1428               	 ;  105 "c:/winavr-20100110/lib/gcc/../../avr/include/util/delay_basic.h" 1
 1429 0596 3197      		1: sbiw r30,1
 1430 0598 01F4      		brne 1b
 1431               	 ;  0 "" 2
 1432               	/* #NOAPP */
 1433               	.LBE1200:
 1434               	.LBE1199:
 1435               	.LM229:
 1436 059a 0197      		sbiw r24,1
 1437               	.LM230:
 1438 059c 01F4      		brne .L203
 1439               	/* epilogue start */
 1440               	.LBE1198:
 1441               	.LBE1197:
 1442               	.LM231:
 1443 059e 0895      		ret
 1444               	.LFE15:
 1446               	.global	deletetemp
 1448               	deletetemp:
 1449               	.LFB16:
 1450               	.LM232:
 1451               	/* prologue: function */
 1452               	/* frame size = 0 */
 1453               	.L224:
 1454               	.LBB1201:
 1455               	.LBB1202:
 1456               	.LM233:
 1457 05a0 8091 C000 		lds r24,192
 1458 05a4 85FF      		sbrs r24,5
 1459 05a6 00C0      		rjmp .L224
 1460               	.LM234:
 1461 05a8 8FEE      		ldi r24,lo8(-17)
 1462 05aa 8093 C600 		sts 198,r24
 1463               	.L225:
 1464               	.LBE1202:
 1465               	.LBE1201:
 1466               	.LBB1203:
 1467               	.LBB1204:
 1468               	.LM235:
 1469 05ae 8091 C000 		lds r24,192
 1470 05b2 85FF      		sbrs r24,5
 1471 05b4 00C0      		rjmp .L225
 1472               	.LM236:
 1473 05b6 81E0      		ldi r24,lo8(1)
 1474 05b8 8093 C600 		sts 198,r24
 1475               	.L226:
 1476               	.LBE1204:
 1477               	.LBE1203:
 1478               	.LBB1205:
 1479               	.LBB1206:
 1480               	.LM237:
 1481 05bc 8091 C000 		lds r24,192
 1482 05c0 85FF      		sbrs r24,5
 1483 05c2 00C0      		rjmp .L226
 1484               	.LM238:
 1485 05c4 8FEF      		ldi r24,lo8(-1)
 1486 05c6 8093 C600 		sts 198,r24
 1487               	.L227:
 1488               	.LBE1206:
 1489               	.LBE1205:
 1490               	.LBB1207:
 1491               	.LBB1208:
 1492               	.LM239:
 1493 05ca 8091 C000 		lds r24,192
 1494 05ce 85FF      		sbrs r24,5
 1495 05d0 00C0      		rjmp .L227
 1496               	.LM240:
 1497 05d2 8FEF      		ldi r24,lo8(-1)
 1498 05d4 8093 C600 		sts 198,r24
 1499               	.L228:
 1500               	.LBE1208:
 1501               	.LBE1207:
 1502               	.LBB1209:
 1503               	.LBB1210:
 1504               	.LM241:
 1505 05d8 8091 C000 		lds r24,192
 1506 05dc 85FF      		sbrs r24,5
 1507 05de 00C0      		rjmp .L228
 1508               	.LM242:
 1509 05e0 8FEF      		ldi r24,lo8(-1)
 1510 05e2 8093 C600 		sts 198,r24
 1511               	.L229:
 1512               	.LBE1210:
 1513               	.LBE1209:
 1514               	.LBB1211:
 1515               	.LBB1212:
 1516               	.LM243:
 1517 05e6 8091 C000 		lds r24,192
 1518 05ea 85FF      		sbrs r24,5
 1519 05ec 00C0      		rjmp .L229
 1520               	.LM244:
 1521 05ee 8FEF      		ldi r24,lo8(-1)
 1522 05f0 8093 C600 		sts 198,r24
 1523               	.L230:
 1524               	.LBE1212:
 1525               	.LBE1211:
 1526               	.LBB1213:
 1527               	.LBB1214:
 1528               	.LM245:
 1529 05f4 8091 C000 		lds r24,192
 1530 05f8 85FF      		sbrs r24,5
 1531 05fa 00C0      		rjmp .L230
 1532               	.LM246:
 1533 05fc 81E0      		ldi r24,lo8(1)
 1534 05fe 8093 C600 		sts 198,r24
 1535               	.L231:
 1536               	.LBE1214:
 1537               	.LBE1213:
 1538               	.LBB1215:
 1539               	.LBB1216:
 1540               	.LM247:
 1541 0602 8091 C000 		lds r24,192
 1542 0606 85FF      		sbrs r24,5
 1543 0608 00C0      		rjmp .L231
 1544               	.LM248:
 1545 060a 1092 C600 		sts 198,__zero_reg__
 1546               	.L232:
 1547               	.LBE1216:
 1548               	.LBE1215:
 1549               	.LBB1217:
 1550               	.LBB1218:
 1551               	.LM249:
 1552 060e 8091 C000 		lds r24,192
 1553 0612 85FF      		sbrs r24,5
 1554 0614 00C0      		rjmp .L232
 1555               	.LM250:
 1556 0616 87E0      		ldi r24,lo8(7)
 1557 0618 8093 C600 		sts 198,r24
 1558               	.L233:
 1559               	.LBE1218:
 1560               	.LBE1217:
 1561               	.LBB1219:
 1562               	.LBB1220:
 1563               	.LM251:
 1564 061c 8091 C000 		lds r24,192
 1565 0620 85FF      		sbrs r24,5
 1566 0622 00C0      		rjmp .L233
 1567               	.LM252:
 1568 0624 8CE0      		ldi r24,lo8(12)
 1569 0626 8093 C600 		sts 198,r24
 1570               	.L234:
 1571               	.LBE1220:
 1572               	.LBE1219:
 1573               	.LBB1221:
 1574               	.LBB1222:
 1575               	.LM253:
 1576 062a 8091 C000 		lds r24,192
 1577 062e 85FF      		sbrs r24,5
 1578 0630 00C0      		rjmp .L234
 1579               	.LM254:
 1580 0632 1092 C600 		sts 198,__zero_reg__
 1581               	.L235:
 1582               	.LBE1222:
 1583               	.LBE1221:
 1584               	.LBB1223:
 1585               	.LBB1224:
 1586               	.LM255:
 1587 0636 8091 C000 		lds r24,192
 1588 063a 85FF      		sbrs r24,5
 1589 063c 00C0      		rjmp .L235
 1590               	.LM256:
 1591 063e 83E0      		ldi r24,lo8(3)
 1592 0640 8093 C600 		sts 198,r24
 1593               	.L236:
 1594               	.LBE1224:
 1595               	.LBE1223:
 1596               	.LBB1225:
 1597               	.LBB1226:
 1598               	.LM257:
 1599 0644 8091 C000 		lds r24,192
 1600 0648 85FF      		sbrs r24,5
 1601 064a 00C0      		rjmp .L236
 1602               	.LM258:
 1603 064c 1092 C600 		sts 198,__zero_reg__
 1604               	.L237:
 1605               	.LBE1226:
 1606               	.LBE1225:
 1607               	.LBB1227:
 1608               	.LBB1228:
 1609               	.LM259:
 1610 0650 8091 C000 		lds r24,192
 1611 0654 85FF      		sbrs r24,5
 1612 0656 00C0      		rjmp .L237
 1613               	.LM260:
 1614 0658 81E0      		ldi r24,lo8(1)
 1615 065a 8093 C600 		sts 198,r24
 1616               	.L238:
 1617               	.LBE1228:
 1618               	.LBE1227:
 1619               	.LBB1229:
 1620               	.LBB1230:
 1621               	.LM261:
 1622 065e 8091 C000 		lds r24,192
 1623 0662 85FF      		sbrs r24,5
 1624 0664 00C0      		rjmp .L238
 1625               	.LM262:
 1626 0666 1092 C600 		sts 198,__zero_reg__
 1627               	.L239:
 1628               	.LBE1230:
 1629               	.LBE1229:
 1630               	.LBB1231:
 1631               	.LBB1232:
 1632               	.LM263:
 1633 066a 8091 C000 		lds r24,192
 1634 066e 85FF      		sbrs r24,5
 1635 0670 00C0      		rjmp .L239
 1636               	.LM264:
 1637 0672 88E1      		ldi r24,lo8(24)
 1638 0674 8093 C600 		sts 198,r24
 1639 0678 84EF      		ldi r24,lo8(500)
 1640 067a 91E0      		ldi r25,hi8(500)
 1641               	.LVL19:
 1642               	.LBE1232:
 1643               	.LBE1231:
 1644               	.LBB1233:
 1645               	.LBB1234:
 1646               	.LBB1235:
 1647               	.LBB1236:
 1648               	.LM265:
 1649 067c 28EC      		ldi r18,lo8(200)
 1650 067e 30E0      		ldi r19,hi8(200)
 1651               	.L240:
 1652 0680 F901      		movw r30,r18
 1653               	.LVL20:
 1654               	/* #APP */
 1655               	 ;  105 "c:/winavr-20100110/lib/gcc/../../avr/include/util/delay_basic.h" 1
 1656 0682 3197      		1: sbiw r30,1
 1657 0684 01F4      		brne 1b
 1658               	 ;  0 "" 2
 1659               	/* #NOAPP */
 1660               	.LBE1236:
 1661               	.LBE1235:
 1662               	.LM266:
 1663 0686 0197      		sbiw r24,1
 1664               	.LM267:
 1665 0688 01F4      		brne .L240
 1666               	/* epilogue start */
 1667               	.LBE1234:
 1668               	.LBE1233:
 1669               	.LM268:
 1670 068a 0895      		ret
 1671               	.LFE16:
 1673               	.global	cmd
 1675               	cmd:
 1676               	.LFB18:
 1677               	.LM269:
 1678               	.LVL21:
 1679               	/* prologue: function */
 1680               	/* frame size = 0 */
 1681               	.LM270:
 1682 068c 88B9      		out 40-32,r24
 1683               	.LM271:
 1684 068e 80E4      		ldi r24,lo8(64)
 1685               	.LVL22:
 1686 0690 8BB9      		out 43-32,r24
 1687               	.LBB1237:
 1688               	.LBB1238:
 1689               	.LBB1239:
 1690               	.LBB1240:
 1691               	.LM272:
 1692 0692 80ED      		ldi r24,lo8(2000)
 1693 0694 97E0      		ldi r25,hi8(2000)
 1694               	.LVL23:
 1695               	/* #APP */
 1696               	 ;  105 "c:/winavr-20100110/lib/gcc/../../avr/include/util/delay_basic.h" 1
 1697 0696 0197      		1: sbiw r24,1
 1698 0698 01F4      		brne 1b
 1699               	 ;  0 "" 2
 1700               	/* #NOAPP */
 1701               	.LBE1240:
 1702               	.LBE1239:
 1703               	.LBE1238:
 1704               	.LBE1237:
 1705               	.LM273:
 1706 069a 1BB8      		out 43-32,__zero_reg__
 1707               	/* epilogue start */
 1708               	.LM274:
 1709 069c 0895      		ret
 1710               	.LFE18:
 1712               	.global	lcdinit
 1714               	lcdinit:
 1715               	.LFB17:
 1716               	.LM275:
 1717               	/* prologue: function */
 1718               	/* frame size = 0 */
 1719               	.LM276:
 1720 069e 88E3      		ldi r24,lo8(56)
 1721 06a0 90E0      		ldi r25,hi8(56)
 1722 06a2 0E94 0000 		call cmd
 1723               	.LM277:
 1724 06a6 8CE0      		ldi r24,lo8(12)
 1725 06a8 90E0      		ldi r25,hi8(12)
 1726 06aa 0E94 0000 		call cmd
 1727               	.LM278:
 1728 06ae 81E0      		ldi r24,lo8(1)
 1729 06b0 90E0      		ldi r25,hi8(1)
 1730 06b2 0E94 0000 		call cmd
 1731               	.LM279:
 1732 06b6 80E8      		ldi r24,lo8(128)
 1733 06b8 90E0      		ldi r25,hi8(128)
 1734 06ba 0E94 0000 		call cmd
 1735 06be 80E1      		ldi r24,lo8(10000)
 1736 06c0 97E2      		ldi r25,hi8(10000)
 1737               	.LVL24:
 1738               	.LBB1241:
 1739               	.LBB1242:
 1740               	.LBB1243:
 1741               	.LBB1244:
 1742               	.LM280:
 1743 06c2 28EC      		ldi r18,lo8(200)
 1744 06c4 30E0      		ldi r19,hi8(200)
 1745               	.L262:
 1746 06c6 F901      		movw r30,r18
 1747               	.LVL25:
 1748               	/* #APP */
 1749               	 ;  105 "c:/winavr-20100110/lib/gcc/../../avr/include/util/delay_basic.h" 1
 1750 06c8 3197      		1: sbiw r30,1
 1751 06ca 01F4      		brne 1b
 1752               	 ;  0 "" 2
 1753               	/* #NOAPP */
 1754               	.LBE1244:
 1755               	.LBE1243:
 1756               	.LM281:
 1757 06cc 0197      		sbiw r24,1
 1758               	.LM282:
 1759 06ce 01F4      		brne .L262
 1760               	.LVL26:
 1761               	/* epilogue start */
 1762               	.LBE1242:
 1763               	.LBE1241:
 1764               	.LM283:
 1765 06d0 0895      		ret
 1766               	.LFE17:
 1768               	.global	data
 1770               	data:
 1771               	.LFB19:
 1772               	.LM284:
 1773               	.LVL27:
 1774               	/* prologue: function */
 1775               	/* frame size = 0 */
 1776               	.LM285:
 1777 06d2 88B9      		out 40-32,r24
 1778               	.LBB1245:
 1779               	.LBB1246:
 1780               	.LBB1247:
 1781               	.LBB1248:
 1782               	.LM286:
 1783 06d4 20ED      		ldi r18,lo8(2000)
 1784 06d6 37E0      		ldi r19,hi8(2000)
 1785 06d8 C901      		movw r24,r18
 1786               	.LVL28:
 1787               	/* #APP */
 1788               	 ;  105 "c:/winavr-20100110/lib/gcc/../../avr/include/util/delay_basic.h" 1
 1789 06da 0197      		1: sbiw r24,1
 1790 06dc 01F4      		brne 1b
 1791               	 ;  0 "" 2
 1792               	/* #NOAPP */
 1793               	.LBE1248:
 1794               	.LBE1247:
 1795               	.LBE1246:
 1796               	.LBE1245:
 1797               	.LM287:
 1798 06de 80EC      		ldi r24,lo8(-64)
 1799               	.LVL29:
 1800 06e0 8BB9      		out 43-32,r24
 1801               	.LBB1249:
 1802               	.LBB1250:
 1803               	.LBB1251:
 1804               	.LBB1252:
 1805               	.LM288:
 1806 06e2 C901      		movw r24,r18
 1807               	.LVL30:
 1808               	/* #APP */
 1809               	 ;  105 "c:/winavr-20100110/lib/gcc/../../avr/include/util/delay_basic.h" 1
 1810 06e4 0197      		1: sbiw r24,1
 1811 06e6 01F4      		brne 1b
 1812               	 ;  0 "" 2
 1813               	/* #NOAPP */
 1814               	.LBE1252:
 1815               	.LBE1251:
 1816               	.LBE1250:
 1817               	.LBE1249:
 1818               	.LM289:
 1819 06e8 80E8      		ldi r24,lo8(-128)
 1820               	.LVL31:
 1821 06ea 8BB9      		out 43-32,r24
 1822               	.LBB1253:
 1823               	.LBB1254:
 1824               	.LBB1255:
 1825               	.LBB1256:
 1826               	.LM290:
 1827 06ec C901      		movw r24,r18
 1828               	.LVL32:
 1829               	/* #APP */
 1830               	 ;  105 "c:/winavr-20100110/lib/gcc/../../avr/include/util/delay_basic.h" 1
 1831 06ee 0197      		1: sbiw r24,1
 1832 06f0 01F4      		brne 1b
 1833               	 ;  0 "" 2
 1834               	/* #NOAPP */
 1835               	.LBE1256:
 1836               	.LBE1255:
 1837               	.LBE1254:
 1838               	.LBE1253:
 1839               	.LBB1257:
 1840               	.LBB1258:
 1841               	.LM291:
 1842 06f2 86E0      		ldi r24,lo8(6)
 1843               	.LVL33:
 1844 06f4 88B9      		out 40-32,r24
 1845               	.LM292:
 1846 06f6 80E4      		ldi r24,lo8(64)
 1847 06f8 8BB9      		out 43-32,r24
 1848               	.LBB1259:
 1849               	.LBB1260:
 1850               	.LBB1261:
 1851               	.LBB1262:
 1852               	.LM293:
 1853 06fa C901      		movw r24,r18
 1854               	.LVL34:
 1855               	/* #APP */
 1856               	 ;  105 "c:/winavr-20100110/lib/gcc/../../avr/include/util/delay_basic.h" 1
 1857 06fc 0197      		1: sbiw r24,1
 1858 06fe 01F4      		brne 1b
 1859               	 ;  0 "" 2
 1860               	/* #NOAPP */
 1861               	.LBE1262:
 1862               	.LBE1261:
 1863               	.LBE1260:
 1864               	.LBE1259:
 1865               	.LM294:
 1866 0700 1BB8      		out 43-32,__zero_reg__
 1867               	/* epilogue start */
 1868               	.LBE1258:
 1869               	.LBE1257:
 1870               	.LM295:
 1871 0702 0895      		ret
 1872               	.LFE19:
 1874               	.global	string
 1876               	string:
 1877               	.LFB20:
 1878               	.LM296:
 1879               	.LVL35:
 1880 0704 CF93      		push r28
 1881 0706 DF93      		push r29
 1882               	/* prologue: function */
 1883               	/* frame size = 0 */
 1884 0708 EC01      		movw r28,r24
 1885 070a 00C0      		rjmp .L268
 1886               	.LVL36:
 1887               	.L269:
 1888               	.LM297:
 1889 070c 2196      		adiw r28,1
 1890 070e 0E94 0000 		call data
 1891               	.LVL37:
 1892               	.L268:
 1893 0712 8881      		ld r24,Y
 1894 0714 8823      		tst r24
 1895 0716 01F4      		brne .L269
 1896               	/* epilogue start */
 1897               	.LM298:
 1898 0718 DF91      		pop r29
 1899 071a CF91      		pop r28
 1900               	.LVL38:
 1901 071c 0895      		ret
 1902               	.LFE20:
 1904               	.global	get_adc
 1906               	get_adc:
 1907               	.LFB21:
 1908               	.LM299:
 1909               	.LVL39:
 1910               	/* prologue: function */
 1911               	/* frame size = 0 */
 1912               	.LM300:
 1913 071e 8066      		ori r24,lo8(96)
 1914               	.LVL40:
 1915 0720 8093 7C00 		sts 124,r24
 1916               	.LM301:
 1917 0724 87EC      		ldi r24,lo8(-57)
 1918 0726 8093 7A00 		sts 122,r24
 1919               	.LBB1263:
 1920               	.LBB1264:
 1921               	.LBB1265:
 1922               	.LBB1266:
 1923               	.LM302:
 1924 072a 80E2      		ldi r24,lo8(20000)
 1925 072c 9EE4      		ldi r25,hi8(20000)
 1926               	.LVL41:
 1927               	/* #APP */
 1928               	 ;  105 "c:/winavr-20100110/lib/gcc/../../avr/include/util/delay_basic.h" 1
 1929 072e 0197      		1: sbiw r24,1
 1930 0730 01F4      		brne 1b
 1931               	 ;  0 "" 2
 1932               	/* #NOAPP */
 1933               	.LBE1266:
 1934               	.LBE1265:
 1935               	.LBE1264:
 1936               	.LBE1263:
 1937               	.LM303:
 1938 0732 8091 7900 		lds r24,121
 1939               	.LVL42:
 1940               	/* epilogue start */
 1941               	.LM304:
 1942 0736 0895      		ret
 1943               	.LFE21:
 1945               		.data
 1946               	.LC0:
 1947 0000 3100      		.string	"1"
 1948               	.LC1:
 1949 0002 3200      		.string	"2"
 1950               	.LC2:
 1951 0004 3300      		.string	"3"
 1952               	.LC3:
 1953 0006 3400      		.string	"4"
 1954               	.LC4:
 1955 0008 3500      		.string	"5"
 1956               	.LC5:
 1957 000a 3600      		.string	"6"
 1958               	.LC6:
 1959 000c 3700      		.string	"7"
 1960               	.LC7:
 1961 000e 3800      		.string	"8"
 1962               	.LC8:
 1963 0010 3900      		.string	"9"
 1964               	.LC9:
 1965 0012 456E 7465 		.string	"Enter Password :"
 1965      7220 5061 
 1965      7373 776F 
 1965      7264 203A 
 1965      00
 1966               	.LC10:
 1967 0023 3000      		.string	"0"
 1968               		.text
 1969               	.global	get_touch
 1971               	get_touch:
 1972               	.LFB22:
 1973               	.LM305:
 1974 0738 FF92      		push r15
 1975 073a 0F93      		push r16
 1976 073c CF93      		push r28
 1977 073e DF93      		push r29
 1978               	/* prologue: function */
 1979               	/* frame size = 0 */
 1980               	.LM306:
 1981 0740 81B1      		in r24,33-32
 1982 0742 8065      		ori r24,lo8(80)
 1983 0744 81B9      		out 33-32,r24
 1984               	.LM307:
 1985 0746 81B1      		in r24,33-32
 1986 0748 8F75      		andi r24,lo8(95)
 1987 074a 81B9      		out 33-32,r24
 1988               	.LM308:
 1989 074c 149A      		sbi 34-32,4
 1990               	.LM309:
 1991 074e 1698      		cbi 34-32,6
 1992               	.LBB1267:
 1993               	.LBB1268:
 1994               	.LBB1269:
 1995               	.LBB1270:
 1996               	.LM310:
 1997 0750 20E2      		ldi r18,lo8(20000)
 1998 0752 3EE4      		ldi r19,hi8(20000)
 1999 0754 C901      		movw r24,r18
 2000               	.LVL43:
 2001               	/* #APP */
 2002               	 ;  105 "c:/winavr-20100110/lib/gcc/../../avr/include/util/delay_basic.h" 1
 2003 0756 0197      		1: sbiw r24,1
 2004 0758 01F4      		brne 1b
 2005               	 ;  0 "" 2
 2006               	/* #NOAPP */
 2007               	.LBE1270:
 2008               	.LBE1269:
 2009               	.LBE1268:
 2010               	.LBE1267:
 2011               	.LBB1271:
 2012               	.LBB1272:
 2013               	.LM311:
 2014 075a 85E6      		ldi r24,lo8(101)
 2015               	.LVL44:
 2016 075c 8093 7C00 		sts 124,r24
 2017               	.LM312:
 2018 0760 87EC      		ldi r24,lo8(-57)
 2019 0762 8093 7A00 		sts 122,r24
 2020               	.LBB1273:
 2021               	.LBB1274:
 2022               	.LBB1275:
 2023               	.LBB1276:
 2024               	.LM313:
 2025 0766 C901      		movw r24,r18
 2026               	.LVL45:
 2027               	/* #APP */
 2028               	 ;  105 "c:/winavr-20100110/lib/gcc/../../avr/include/util/delay_basic.h" 1
 2029 0768 0197      		1: sbiw r24,1
 2030 076a 01F4      		brne 1b
 2031               	 ;  0 "" 2
 2032               	/* #NOAPP */
 2033               	.LBE1276:
 2034               	.LBE1275:
 2035               	.LBE1274:
 2036               	.LBE1273:
 2037               	.LM314:
 2038 076c 4091 7900 		lds r20,121
 2039               	.LVL46:
 2040 0770 88EE      		ldi r24,lo8(1000)
 2041 0772 93E0      		ldi r25,hi8(1000)
 2042               	.LVL47:
 2043               	.LBE1272:
 2044               	.LBE1271:
 2045               	.LBB1277:
 2046               	.LBB1278:
 2047               	.LBB1279:
 2048               	.LBB1280:
 2049               	.LM315:
 2050 0774 28EC      		ldi r18,lo8(200)
 2051 0776 30E0      		ldi r19,hi8(200)
 2052               	.L274:
 2053 0778 F901      		movw r30,r18
 2054               	.LVL48:
 2055               	/* #APP */
 2056               	 ;  105 "c:/winavr-20100110/lib/gcc/../../avr/include/util/delay_basic.h" 1
 2057 077a 3197      		1: sbiw r30,1
 2058 077c 01F4      		brne 1b
 2059               	 ;  0 "" 2
 2060               	/* #NOAPP */
 2061               	.LBE1280:
 2062               	.LBE1279:
 2063               	.LM316:
 2064 077e 0197      		sbiw r24,1
 2065               	.LM317:
 2066 0780 01F4      		brne .L274
 2067               	.LBE1278:
 2068               	.LBE1277:
 2069               	.LM318:
 2070 0782 81B1      		in r24,33-32
 2071               	.LVL49:
 2072 0784 806A      		ori r24,lo8(-96)
 2073 0786 81B9      		out 33-32,r24
 2074               	.LM319:
 2075 0788 81B1      		in r24,33-32
 2076 078a 8F7A      		andi r24,lo8(-81)
 2077 078c 81B9      		out 33-32,r24
 2078               	.LM320:
 2079 078e 179A      		sbi 34-32,7
 2080               	.LM321:
 2081 0790 1598      		cbi 34-32,5
 2082               	.LBB1281:
 2083               	.LBB1282:
 2084               	.LBB1283:
 2085               	.LBB1284:
 2086               	.LM322:
 2087 0792 20E2      		ldi r18,lo8(20000)
 2088 0794 3EE4      		ldi r19,hi8(20000)
 2089 0796 C901      		movw r24,r18
 2090               	.LVL50:
 2091               	/* #APP */
 2092               	 ;  105 "c:/winavr-20100110/lib/gcc/../../avr/include/util/delay_basic.h" 1
 2093 0798 0197      		1: sbiw r24,1
 2094 079a 01F4      		brne 1b
 2095               	 ;  0 "" 2
 2096               	/* #NOAPP */
 2097               	.LBE1284:
 2098               	.LBE1283:
 2099               	.LBE1282:
 2100               	.LBE1281:
 2101               	.LBB1285:
 2102               	.LBB1286:
 2103               	.LM323:
 2104 079c 84E6      		ldi r24,lo8(100)
 2105               	.LVL51:
 2106 079e 8093 7C00 		sts 124,r24
 2107               	.LM324:
 2108 07a2 87EC      		ldi r24,lo8(-57)
 2109 07a4 8093 7A00 		sts 122,r24
 2110               	.LBB1287:
 2111               	.LBB1288:
 2112               	.LBB1289:
 2113               	.LBB1290:
 2114               	.LM325:
 2115 07a8 C901      		movw r24,r18
 2116               	.LVL52:
 2117               	/* #APP */
 2118               	 ;  105 "c:/winavr-20100110/lib/gcc/../../avr/include/util/delay_basic.h" 1
 2119 07aa 0197      		1: sbiw r24,1
 2120 07ac 01F4      		brne 1b
 2121               	 ;  0 "" 2
 2122               	/* #NOAPP */
 2123               	.LBE1290:
 2124               	.LBE1289:
 2125               	.LBE1288:
 2126               	.LBE1287:
 2127               	.LM326:
 2128 07ae 0091 7900 		lds r16,121
 2129               	.LVL53:
 2130 07b2 88EE      		ldi r24,lo8(1000)
 2131 07b4 93E0      		ldi r25,hi8(1000)
 2132               	.LVL54:
 2133               	.LBE1286:
 2134               	.LBE1285:
 2135               	.LBB1291:
 2136               	.LBB1292:
 2137               	.LBB1293:
 2138               	.LBB1294:
 2139               	.LM327:
 2140 07b6 28EC      		ldi r18,lo8(200)
 2141 07b8 30E0      		ldi r19,hi8(200)
 2142               	.L275:
 2143 07ba F901      		movw r30,r18
 2144               	.LVL55:
 2145               	/* #APP */
 2146               	 ;  105 "c:/winavr-20100110/lib/gcc/../../avr/include/util/delay_basic.h" 1
 2147 07bc 3197      		1: sbiw r30,1
 2148 07be 01F4      		brne 1b
 2149               	 ;  0 "" 2
 2150               	/* #NOAPP */
 2151               	.LBE1294:
 2152               	.LBE1293:
 2153               	.LM328:
 2154 07c0 0197      		sbiw r24,1
 2155               	.LM329:
 2156 07c2 01F4      		brne .L275
 2157               	.LBE1292:
 2158               	.LBE1291:
 2159               	.LM330:
 2160 07c4 842F      		mov r24,r20
 2161               	.LVL56:
 2162 07c6 8451      		subi r24,lo8(-(-20))
 2163 07c8 8233      		cpi r24,lo8(50)
 2164 07ca 00F4      		brsh .L276
 2165               	.LM331:
 2166 07cc 802F      		mov r24,r16
 2167 07ce 8E5A      		subi r24,lo8(-(82))
 2168 07d0 8433      		cpi r24,lo8(52)
 2169 07d2 00F4      		brsh .L277
 2170               	.LM332:
 2171 07d4 80E0      		ldi r24,lo8(.LC0)
 2172 07d6 90E0      		ldi r25,hi8(.LC0)
 2173 07d8 0E94 0000 		call string
 2174               	.LVL57:
 2175 07dc 81E3      		ldi r24,lo8(49)
 2176 07de 00C0      		rjmp .L278
 2177               	.LVL58:
 2178               	.L277:
 2179               	.LM333:
 2180 07e0 802F      		mov r24,r16
 2181 07e2 8E56      		subi r24,lo8(-(-110))
 2182 07e4 8C33      		cpi r24,lo8(60)
 2183 07e6 00F4      		brsh .L279
 2184               	.LM334:
 2185 07e8 80E0      		ldi r24,lo8(.LC1)
 2186 07ea 90E0      		ldi r25,hi8(.LC1)
 2187 07ec 0E94 0000 		call string
 2188               	.LVL59:
 2189 07f0 82E3      		ldi r24,lo8(50)
 2190 07f2 00C0      		rjmp .L278
 2191               	.LVL60:
 2192               	.L279:
 2193               	.LM335:
 2194 07f4 0053      		subi r16,lo8(-(-48))
 2195 07f6 0433      		cpi r16,lo8(52)
 2196 07f8 00F0      		brlo .+2
 2197 07fa 00C0      		rjmp .L280
 2198               	.LM336:
 2199 07fc 80E0      		ldi r24,lo8(.LC2)
 2200 07fe 90E0      		ldi r25,hi8(.LC2)
 2201 0800 0E94 0000 		call string
 2202               	.LVL61:
 2203 0804 83E3      		ldi r24,lo8(51)
 2204 0806 00C0      		rjmp .L278
 2205               	.LVL62:
 2206               	.L276:
 2207               	.LM337:
 2208 0808 842F      		mov r24,r20
 2209 080a 8654      		subi r24,lo8(-(-70))
 2210 080c 8233      		cpi r24,lo8(50)
 2211 080e 00F4      		brsh .L281
 2212               	.LM338:
 2213 0810 802F      		mov r24,r16
 2214 0812 8A5A      		subi r24,lo8(-(86))
 2215 0814 8733      		cpi r24,lo8(55)
 2216 0816 00F4      		brsh .L282
 2217               	.LM339:
 2218 0818 80E0      		ldi r24,lo8(.LC3)
 2219 081a 90E0      		ldi r25,hi8(.LC3)
 2220 081c 0E94 0000 		call string
 2221               	.LVL63:
 2222 0820 84E3      		ldi r24,lo8(52)
 2223 0822 00C0      		rjmp .L278
 2224               	.LVL64:
 2225               	.L282:
 2226               	.LM340:
 2227 0824 802F      		mov r24,r16
 2228 0826 8E56      		subi r24,lo8(-(-110))
 2229 0828 8C33      		cpi r24,lo8(60)
 2230 082a 00F4      		brsh .L283
 2231               	.LM341:
 2232 082c 80E0      		ldi r24,lo8(.LC4)
 2233 082e 90E0      		ldi r25,hi8(.LC4)
 2234 0830 0E94 0000 		call string
 2235               	.LVL65:
 2236 0834 85E3      		ldi r24,lo8(53)
 2237 0836 00C0      		rjmp .L278
 2238               	.LVL66:
 2239               	.L283:
 2240               	.LM342:
 2241 0838 0852      		subi r16,lo8(-(-40))
 2242 083a 0D33      		cpi r16,lo8(61)
 2243 083c 00F0      		brlo .+2
 2244 083e 00C0      		rjmp .L280
 2245               	.LM343:
 2246 0840 80E0      		ldi r24,lo8(.LC5)
 2247 0842 90E0      		ldi r25,hi8(.LC5)
 2248 0844 0E94 0000 		call string
 2249               	.LVL67:
 2250 0848 86E3      		ldi r24,lo8(54)
 2251 084a 00C0      		rjmp .L278
 2252               	.LVL68:
 2253               	.L281:
 2254               	.LM344:
 2255 084c 842F      		mov r24,r20
 2256 084e 8258      		subi r24,lo8(-(126))
 2257 0850 8233      		cpi r24,lo8(50)
 2258 0852 00F4      		brsh .L284
 2259               	.LM345:
 2260 0854 802F      		mov r24,r16
 2261 0856 8B5A      		subi r24,lo8(-(85))
 2262 0858 8733      		cpi r24,lo8(55)
 2263 085a 00F4      		brsh .L285
 2264               	.LM346:
 2265 085c 80E0      		ldi r24,lo8(.LC6)
 2266 085e 90E0      		ldi r25,hi8(.LC6)
 2267 0860 0E94 0000 		call string
 2268               	.LVL69:
 2269 0864 87E3      		ldi r24,lo8(55)
 2270 0866 00C0      		rjmp .L278
 2271               	.LVL70:
 2272               	.L285:
 2273               	.LM347:
 2274 0868 802F      		mov r24,r16
 2275 086a 8E56      		subi r24,lo8(-(-110))
 2276 086c 8C33      		cpi r24,lo8(60)
 2277 086e 00F4      		brsh .L286
 2278               	.LM348:
 2279 0870 80E0      		ldi r24,lo8(.LC7)
 2280 0872 90E0      		ldi r25,hi8(.LC7)
 2281 0874 0E94 0000 		call string
 2282               	.LVL71:
 2283 0878 88E3      		ldi r24,lo8(56)
 2284 087a 00C0      		rjmp .L278
 2285               	.LVL72:
 2286               	.L286:
 2287               	.LM349:
 2288 087c 0852      		subi r16,lo8(-(-40))
 2289 087e 0C33      		cpi r16,lo8(60)
 2290 0880 00F4      		brsh .L280
 2291               	.LM350:
 2292 0882 80E0      		ldi r24,lo8(.LC8)
 2293 0884 90E0      		ldi r25,hi8(.LC8)
 2294 0886 0E94 0000 		call string
 2295               	.LVL73:
 2296 088a 89E3      		ldi r24,lo8(57)
 2297 088c 00C0      		rjmp .L278
 2298               	.LVL74:
 2299               	.L284:
 2300               	.LM351:
 2301 088e 445B      		subi r20,lo8(-(76))
 2302 0890 4B34      		cpi r20,lo8(75)
 2303 0892 00F4      		brsh .L280
 2304               	.LM352:
 2305 0894 802F      		mov r24,r16
 2306 0896 8B5A      		subi r24,lo8(-(85))
 2307 0898 8733      		cpi r24,lo8(55)
 2308 089a 00F4      		brsh .L287
 2309               	.LBB1295:
 2310               	.LBB1296:
 2311               	.LM353:
 2312 089c 81E0      		ldi r24,lo8(1)
 2313 089e 88B9      		out 40-32,r24
 2314               	.LM354:
 2315 08a0 80E4      		ldi r24,lo8(64)
 2316 08a2 F82E      		mov r15,r24
 2317 08a4 FBB8      		out 43-32,r15
 2318               	.LBB1297:
 2319               	.LBB1298:
 2320               	.LBB1299:
 2321               	.LBB1300:
 2322               	.LM355:
 2323 08a6 C0ED      		ldi r28,lo8(2000)
 2324 08a8 D7E0      		ldi r29,hi8(2000)
 2325 08aa CE01      		movw r24,r28
 2326               	.LVL75:
 2327               	/* #APP */
 2328               	 ;  105 "c:/winavr-20100110/lib/gcc/../../avr/include/util/delay_basic.h" 1
 2329 08ac 0197      		1: sbiw r24,1
 2330 08ae 01F4      		brne 1b
 2331               	 ;  0 "" 2
 2332               	/* #NOAPP */
 2333               	.LBE1300:
 2334               	.LBE1299:
 2335               	.LBE1298:
 2336               	.LBE1297:
 2337               	.LM356:
 2338 08b0 1BB8      		out 43-32,__zero_reg__
 2339               	.LBE1296:
 2340               	.LBE1295:
 2341               	.LBB1301:
 2342               	.LBB1302:
 2343               	.LM357:
 2344 08b2 80E8      		ldi r24,lo8(-128)
 2345               	.LVL76:
 2346 08b4 88B9      		out 40-32,r24
 2347               	.LM358:
 2348 08b6 FBB8      		out 43-32,r15
 2349               	.LBB1303:
 2350               	.LBB1304:
 2351               	.LBB1305:
 2352               	.LBB1306:
 2353               	.LM359:
 2354 08b8 CE01      		movw r24,r28
 2355               	.LVL77:
 2356               	/* #APP */
 2357               	 ;  105 "c:/winavr-20100110/lib/gcc/../../avr/include/util/delay_basic.h" 1
 2358 08ba 0197      		1: sbiw r24,1
 2359 08bc 01F4      		brne 1b
 2360               	 ;  0 "" 2
 2361               	/* #NOAPP */
 2362               	.LBE1306:
 2363               	.LBE1305:
 2364               	.LBE1304:
 2365               	.LBE1303:
 2366               	.LM360:
 2367 08be 1BB8      		out 43-32,__zero_reg__
 2368               	.LBE1302:
 2369               	.LBE1301:
 2370               	.LM361:
 2371 08c0 80E0      		ldi r24,lo8(.LC9)
 2372 08c2 90E0      		ldi r25,hi8(.LC9)
 2373               	.LVL78:
 2374 08c4 0E94 0000 		call string
 2375               	.LVL79:
 2376               	.LBB1307:
 2377               	.LBB1308:
 2378               	.LM362:
 2379 08c8 80EC      		ldi r24,lo8(-64)
 2380 08ca 88B9      		out 40-32,r24
 2381               	.LM363:
 2382 08cc FBB8      		out 43-32,r15
 2383               	.LBB1309:
 2384               	.LBB1310:
 2385               	.LBB1311:
 2386               	.LBB1312:
 2387               	.LM364:
 2388 08ce CE01      		movw r24,r28
 2389               	.LVL80:
 2390               	/* #APP */
 2391               	 ;  105 "c:/winavr-20100110/lib/gcc/../../avr/include/util/delay_basic.h" 1
 2392 08d0 0197      		1: sbiw r24,1
 2393 08d2 01F4      		brne 1b
 2394               	 ;  0 "" 2
 2395               	/* #NOAPP */
 2396               	.LBE1312:
 2397               	.LBE1311:
 2398               	.LBE1310:
 2399               	.LBE1309:
 2400               	.LM365:
 2401 08d4 1BB8      		out 43-32,__zero_reg__
 2402               	.LVL81:
 2403               	.L287:
 2404               	.LBE1308:
 2405               	.LBE1307:
 2406               	.LM366:
 2407 08d6 0E56      		subi r16,lo8(-(-110))
 2408 08d8 0C33      		cpi r16,lo8(60)
 2409 08da 00F4      		brsh .L280
 2410               	.LM367:
 2411 08dc 80E0      		ldi r24,lo8(.LC10)
 2412 08de 90E0      		ldi r25,hi8(.LC10)
 2413               	.LVL82:
 2414 08e0 0E94 0000 		call string
 2415               	.LVL83:
 2416 08e4 80E3      		ldi r24,lo8(48)
 2417 08e6 00C0      		rjmp .L278
 2418               	.LVL84:
 2419               	.L280:
 2420               	.LM368:
 2421 08e8 80E0      		ldi r24,lo8(0)
 2422               	.LVL85:
 2423               	.L278:
 2424               	/* epilogue start */
 2425               	.LM369:
 2426 08ea DF91      		pop r29
 2427 08ec CF91      		pop r28
 2428 08ee 0F91      		pop r16
 2429               	.LVL86:
 2430 08f0 FF90      		pop r15
 2431 08f2 0895      		ret
 2432               	.LFE22:
 2434               	.global	uartinit_1
 2436               	uartinit_1:
 2437               	.LFB23:
 2438               	.LM370:
 2439               	/* prologue: function */
 2440               	/* frame size = 0 */
 2441               	.LM371:
 2442 08f4 83E3      		ldi r24,lo8(51)
 2443 08f6 8093 CC00 		sts 204,r24
 2444               	.LM372:
 2445 08fa E9EC      		ldi r30,lo8(201)
 2446 08fc F0E0      		ldi r31,hi8(201)
 2447 08fe 8081      		ld r24,Z
 2448 0900 8869      		ori r24,lo8(-104)
 2449 0902 8083      		st Z,r24
 2450               	/* epilogue start */
 2451               	.LM373:
 2452 0904 0895      		ret
 2453               	.LFE23:
 2455               	.global	uart_trans1
 2457               	uart_trans1:
 2458               	.LFB24:
 2459               	.LM374:
 2460               	.LVL87:
 2461               	/* prologue: function */
 2462               	/* frame size = 0 */
 2463 0906 982F      		mov r25,r24
 2464               	.LVL88:
 2465               	.L294:
 2466               	.LM375:
 2467 0908 8091 C800 		lds r24,200
 2468 090c 85FF      		sbrs r24,5
 2469 090e 00C0      		rjmp .L294
 2470               	.LM376:
 2471 0910 9093 CE00 		sts 206,r25
 2472               	/* epilogue start */
 2473               	.LM377:
 2474 0914 0895      		ret
 2475               	.LFE24:
 2477               	.global	stransmit1
 2479               	stransmit1:
 2480               	.LFB25:
 2481               	.LM378:
 2482               	.LVL89:
 2483               	/* prologue: function */
 2484               	/* frame size = 0 */
 2485 0916 FC01      		movw r30,r24
 2486 0918 00C0      		rjmp .L298
 2487               	.LVL90:
 2488               	.L301:
 2489               	.LBB1313:
 2490               	.LBB1314:
 2491               	.LM379:
 2492 091a 8091 C800 		lds r24,200
 2493 091e 85FF      		sbrs r24,5
 2494 0920 00C0      		rjmp .L301
 2495               	.LBE1314:
 2496               	.LBE1313:
 2497               	.LM380:
 2498 0922 3196      		adiw r30,1
 2499               	.LBB1316:
 2500               	.LBB1315:
 2501               	.LM381:
 2502 0924 9093 CE00 		sts 206,r25
 2503               	.LVL91:
 2504               	.L298:
 2505               	.LBE1315:
 2506               	.LBE1316:
 2507               	.LM382:
 2508 0928 9081      		ld r25,Z
 2509 092a 9923      		tst r25
 2510 092c 01F4      		brne .L301
 2511               	/* epilogue start */
 2512               	.LM383:
 2513 092e 0895      		ret
 2514               	.LFE25:
 2516               		.data
 2517               	.LC11:
 2518 0025 5265 6365 		.string	"Received Data"
 2518      6976 6564 
 2518      2044 6174 
 2518      6100 
 2519               		.text
 2520               	.global	__vector_28
 2522               	__vector_28:
 2523               	.LFB26:
 2524               	.LM384:
 2525 0930 1F92      		push __zero_reg__
 2526 0932 0F92      		push r0
 2527 0934 0FB6      		in r0,__SREG__
 2528 0936 0F92      		push r0
 2529 0938 1124      		clr __zero_reg__
 2530 093a FF92      		push r15
 2531 093c 0F93      		push r16
 2532 093e 1F93      		push r17
 2533 0940 2F93      		push r18
 2534 0942 3F93      		push r19
 2535 0944 4F93      		push r20
 2536 0946 5F93      		push r21
 2537 0948 6F93      		push r22
 2538 094a 7F93      		push r23
 2539 094c 8F93      		push r24
 2540 094e 9F93      		push r25
 2541 0950 AF93      		push r26
 2542 0952 BF93      		push r27
 2543 0954 EF93      		push r30
 2544 0956 FF93      		push r31
 2545               	/* prologue: Signal */
 2546               	/* frame size = 0 */
 2547               	.LM385:
 2548 0958 8091 CE00 		lds r24,206
 2549 095c 90E0      		ldi r25,lo8(0)
 2550 095e 9093 0000 		sts (dk)+1,r25
 2551 0962 8093 0000 		sts dk,r24
 2552               	.LBB1317:
 2553               	.LBB1318:
 2554               	.LM386:
 2555 0966 81E0      		ldi r24,lo8(1)
 2556 0968 88B9      		out 40-32,r24
 2557               	.LM387:
 2558 096a 90E4      		ldi r25,lo8(64)
 2559 096c F92E      		mov r15,r25
 2560 096e FBB8      		out 43-32,r15
 2561               	.LBB1319:
 2562               	.LBB1320:
 2563               	.LBB1321:
 2564               	.LBB1322:
 2565               	.LM388:
 2566 0970 00ED      		ldi r16,lo8(2000)
 2567 0972 17E0      		ldi r17,hi8(2000)
 2568 0974 C801      		movw r24,r16
 2569               	.LVL92:
 2570               	/* #APP */
 2571               	 ;  105 "c:/winavr-20100110/lib/gcc/../../avr/include/util/delay_basic.h" 1
 2572 0976 0197      		1: sbiw r24,1
 2573 0978 01F4      		brne 1b
 2574               	 ;  0 "" 2
 2575               	/* #NOAPP */
 2576               	.LBE1322:
 2577               	.LBE1321:
 2578               	.LBE1320:
 2579               	.LBE1319:
 2580               	.LM389:
 2581 097a 1BB8      		out 43-32,__zero_reg__
 2582               	.LBE1318:
 2583               	.LBE1317:
 2584               	.LBB1323:
 2585               	.LBB1324:
 2586               	.LM390:
 2587 097c 80E8      		ldi r24,lo8(-128)
 2588               	.LVL93:
 2589 097e 88B9      		out 40-32,r24
 2590               	.LM391:
 2591 0980 FBB8      		out 43-32,r15
 2592               	.LBB1325:
 2593               	.LBB1326:
 2594               	.LBB1327:
 2595               	.LBB1328:
 2596               	.LM392:
 2597 0982 C801      		movw r24,r16
 2598               	.LVL94:
 2599               	/* #APP */
 2600               	 ;  105 "c:/winavr-20100110/lib/gcc/../../avr/include/util/delay_basic.h" 1
 2601 0984 0197      		1: sbiw r24,1
 2602 0986 01F4      		brne 1b
 2603               	 ;  0 "" 2
 2604               	/* #NOAPP */
 2605               	.LBE1328:
 2606               	.LBE1327:
 2607               	.LBE1326:
 2608               	.LBE1325:
 2609               	.LM393:
 2610 0988 1BB8      		out 43-32,__zero_reg__
 2611               	.LBE1324:
 2612               	.LBE1323:
 2613               	.LM394:
 2614 098a 80E0      		ldi r24,lo8(.LC11)
 2615 098c 90E0      		ldi r25,hi8(.LC11)
 2616               	.LVL95:
 2617 098e 0E94 0000 		call string
 2618               	.LBB1329:
 2619               	.LBB1330:
 2620               	.LM395:
 2621 0992 80EC      		ldi r24,lo8(-64)
 2622 0994 88B9      		out 40-32,r24
 2623               	.LM396:
 2624 0996 FBB8      		out 43-32,r15
 2625               	.LBB1331:
 2626               	.LBB1332:
 2627               	.LBB1333:
 2628               	.LBB1334:
 2629               	.LM397:
 2630 0998 C801      		movw r24,r16
 2631               	.LVL96:
 2632               	/* #APP */
 2633               	 ;  105 "c:/winavr-20100110/lib/gcc/../../avr/include/util/delay_basic.h" 1
 2634 099a 0197      		1: sbiw r24,1
 2635 099c 01F4      		brne 1b
 2636               	 ;  0 "" 2
 2637               	/* #NOAPP */
 2638               	.LBE1334:
 2639               	.LBE1333:
 2640               	.LBE1332:
 2641               	.LBE1331:
 2642               	.LM398:
 2643 099e 1BB8      		out 43-32,__zero_reg__
 2644               	.LBE1330:
 2645               	.LBE1329:
 2646               	.LM399:
 2647 09a0 8091 0000 		lds r24,dk
 2648 09a4 9091 0000 		lds r25,(dk)+1
 2649               	.LVL97:
 2650 09a8 0E94 0000 		call data
 2651 09ac 80E1      		ldi r24,lo8(10000)
 2652 09ae 97E2      		ldi r25,hi8(10000)
 2653               	.LVL98:
 2654               	.LBB1335:
 2655               	.LBB1336:
 2656               	.LBB1337:
 2657               	.LBB1338:
 2658               	.LM400:
 2659 09b0 28EC      		ldi r18,lo8(200)
 2660 09b2 30E0      		ldi r19,hi8(200)
 2661               	.L304:
 2662 09b4 F901      		movw r30,r18
 2663               	.LVL99:
 2664               	/* #APP */
 2665               	 ;  105 "c:/winavr-20100110/lib/gcc/../../avr/include/util/delay_basic.h" 1
 2666 09b6 3197      		1: sbiw r30,1
 2667 09b8 01F4      		brne 1b
 2668               	 ;  0 "" 2
 2669               	/* #NOAPP */
 2670               	.LBE1338:
 2671               	.LBE1337:
 2672               	.LM401:
 2673 09ba 0197      		sbiw r24,1
 2674               	.LM402:
 2675 09bc 01F4      		brne .L304
 2676               	/* epilogue start */
 2677               	.LBE1336:
 2678               	.LBE1335:
 2679               	.LM403:
 2680 09be FF91      		pop r31
 2681 09c0 EF91      		pop r30
 2682               	.LVL100:
 2683 09c2 BF91      		pop r27
 2684 09c4 AF91      		pop r26
 2685 09c6 9F91      		pop r25
 2686 09c8 8F91      		pop r24
 2687               	.LVL101:
 2688 09ca 7F91      		pop r23
 2689 09cc 6F91      		pop r22
 2690 09ce 5F91      		pop r21
 2691 09d0 4F91      		pop r20
 2692 09d2 3F91      		pop r19
 2693 09d4 2F91      		pop r18
 2694 09d6 1F91      		pop r17
 2695 09d8 0F91      		pop r16
 2696 09da FF90      		pop r15
 2697 09dc 0F90      		pop r0
 2698 09de 0FBE      		out __SREG__,r0
 2699 09e0 0F90      		pop r0
 2700 09e2 1F90      		pop __zero_reg__
 2701 09e4 1895      		reti
 2702               	.LFE26:
 2704               	.global	__vector_20
 2706               	__vector_20:
 2707               	.LFB27:
 2708               	.LM404:
 2709 09e6 1F92      		push __zero_reg__
 2710 09e8 0F92      		push r0
 2711 09ea 0FB6      		in r0,__SREG__
 2712 09ec 0F92      		push r0
 2713 09ee 1124      		clr __zero_reg__
 2714 09f0 8F93      		push r24
 2715 09f2 9F93      		push r25
 2716 09f4 EF93      		push r30
 2717 09f6 FF93      		push r31
 2718               	/* prologue: Signal */
 2719               	/* frame size = 0 */
 2720               	.LM405:
 2721 09f8 E091 0000 		lds r30,it
 2722 09fc F091 0000 		lds r31,(it)+1
 2723 0a00 8091 C600 		lds r24,198
 2724 0a04 E050      		subi r30,lo8(-(ack))
 2725 0a06 F040      		sbci r31,hi8(-(ack))
 2726 0a08 8083      		st Z,r24
 2727               	.LM406:
 2728 0a0a 8091 0000 		lds r24,it
 2729 0a0e 9091 0000 		lds r25,(it)+1
 2730 0a12 0196      		adiw r24,1
 2731 0a14 9093 0000 		sts (it)+1,r25
 2732 0a18 8093 0000 		sts it,r24
 2733               	.LM407:
 2734 0a1c 8091 0000 		lds r24,it
 2735 0a20 9091 0000 		lds r25,(it)+1
 2736 0a24 0C97      		sbiw r24,12
 2737 0a26 00F0      		brlo .L309
 2738               	.LM408:
 2739 0a28 81E0      		ldi r24,lo8(1)
 2740 0a2a 90E0      		ldi r25,hi8(1)
 2741 0a2c 9093 0000 		sts (pk)+1,r25
 2742 0a30 8093 0000 		sts pk,r24
 2743               	.LM409:
 2744 0a34 1092 0000 		sts (it)+1,__zero_reg__
 2745 0a38 1092 0000 		sts it,__zero_reg__
 2746               	.L309:
 2747               	/* epilogue start */
 2748               	.LM410:
 2749 0a3c FF91      		pop r31
 2750 0a3e EF91      		pop r30
 2751 0a40 9F91      		pop r25
 2752 0a42 8F91      		pop r24
 2753 0a44 0F90      		pop r0
 2754 0a46 0FBE      		out __SREG__,r0
 2755 0a48 0F90      		pop r0
 2756 0a4a 1F90      		pop __zero_reg__
 2757 0a4c 1895      		reti
 2758               	.LFE27:
 2760               		.data
 2761               	.LC15:
 2762 0033 456E 7465 		.string	"Enter Password : "
 2762      7220 5061 
 2762      7373 776F 
 2762      7264 203A 
 2762      2000 
 2763               	.LC16:
 2764 0045 4368 6563 		.string	"Checking...."
 2764      6B69 6E67 
 2764      2E2E 2E2E 
 2764      00
 2765               	.LC17:
 2766 0052 5765 6C63 		.string	"Welcome "
 2766      6F6D 6520 
 2766      00
 2767               	.LC18:
 2768 005b 4F6D 6B61 		.string	"Omkar"
 2768      7200 
 2769               	.LC19:
 2770 0061 5368 7261 		.string	"Shravan"
 2770      7661 6E00 
 2771               	.LC20:
 2772 0069 5669 7368 		.string	"Vishal"
 2772      616C 00
 2773               	.LC21:
 2774 0070 5772 6F6E 		.string	"Wrong Password"
 2774      6720 5061 
 2774      7373 776F 
 2774      7264 00
 2775               	.LC22:
 2776 007f 5061 7373 		.string	"Password Match"
 2776      776F 7264 
 2776      204D 6174 
 2776      6368 00
 2777               	.LC23:
 2778 008e 5075 7420 		.string	"Put Finger >"
 2778      4669 6E67 
 2778      6572 203E 
 2778      00
 2779               	.LC24:
 2780 009b 4669 6E67 		.string	"Finger Collected"
 2780      6572 2043 
 2780      6F6C 6C65 
 2780      6374 6564 
 2780      00
 2781               	.LC25:
 2782 00ac 4E6F 2046 		.string	"No Finger"
 2782      696E 6765 
 2782      7200 
 2783               	.LC26:
 2784 00b6 7365 6172 		.string	"searching"
 2784      6368 696E 
 2784      6700 
 2785               	.LC27:
 2786 00c0 4669 6E67 		.string	"Finger matched"
 2786      6572 206D 
 2786      6174 6368 
 2786      6564 00
 2787               	.LC28:
 2788 00cf 7769 7468 		.string	"with onkar"
 2788      206F 6E6B 
 2788      6172 00
 2789               	.LC29:
 2790 00da 7769 7468 		.string	"with vishal"
 2790      2076 6973 
 2790      6861 6C00 
 2791               	.LC30:
 2792 00e6 7769 7468 		.string	"with shravan"
 2792      2073 6872 
 2792      6176 616E 
 2792      00
 2793               	.LC31:
 2794 00f3 4669 6E67 		.string	"Finger Not"
 2794      6572 204E 
 2794      6F74 00
 2795               	.LC32:
 2796 00fe 4D61 7463 		.string	"Matched"
 2796      6865 6400 
 2797               	.LC33:
 2798 0106 5761 6974 		.string	"Waiting for"
 2798      696E 6720 
 2798      666F 7200 
 2799               	.LC34:
 2800 0112 6661 6365 		.string	"face ID..."
 2800      2049 442E 
 2800      2E2E 00
 2801               	.LC35:
 2802 011d 4661 6365 		.string	"Face Match"
 2802      204D 6174 
 2802      6368 00
 2803               	.LC36:
 2804 0128 7769 7468 		.string	"with Onkar"
 2804      204F 6E6B 
 2804      6172 00
 2805               	.LC37:
 2806 0133 4163 6365 		.string	"Access"
 2806      7373 00
 2807               	.LC38:
 2808 013a 4772 616E 		.string	"Granted"
 2808      7465 6400 
 2809               	.LC39:
 2810 0142 4661 6365 		.string	"Face"
 2810      00
 2811               	.LC40:
 2812 0147 4E6F 7420 		.string	"Not matched"
 2812      6D61 7463 
 2812      6865 6400 
 2813               	.LC12:
 2814 0153 3133 3234 		.string	"1324"
 2814      00
 2815               	.LC13:
 2816 0158 3435 3337 		.string	"4537"
 2816      00
 2817               	.LC14:
 2818 015d 3930 3633 		.string	"9063"
 2818      00
 2819               		.text
 2820               	.global	main
 2822               	main:
 2823               	.LFB28:
 2824               	.LM411:
 2825 0a4e 2F92      		push r2
 2826 0a50 3F92      		push r3
 2827 0a52 4F92      		push r4
 2828 0a54 5F92      		push r5
 2829 0a56 6F92      		push r6
 2830 0a58 7F92      		push r7
 2831 0a5a 8F92      		push r8
 2832 0a5c 9F92      		push r9
 2833 0a5e AF92      		push r10
 2834 0a60 BF92      		push r11
 2835 0a62 CF92      		push r12
 2836 0a64 DF92      		push r13
 2837 0a66 EF92      		push r14
 2838 0a68 FF92      		push r15
 2839 0a6a 0F93      		push r16
 2840 0a6c 1F93      		push r17
 2841 0a6e DF93      		push r29
 2842 0a70 CF93      		push r28
 2843 0a72 CDB7      		in r28,__SP_L__
 2844 0a74 DEB7      		in r29,__SP_H__
 2845 0a76 6097      		sbiw r28,16
 2846 0a78 0FB6      		in __tmp_reg__,__SREG__
 2847 0a7a F894      		cli
 2848 0a7c DEBF      		out __SP_H__,r29
 2849 0a7e 0FBE      		out __SREG__,__tmp_reg__
 2850 0a80 CDBF      		out __SP_L__,r28
 2851               	/* prologue: function */
 2852               	/* frame size = 16 */
 2853               	.LM412:
 2854 0a82 9FEF      		ldi r25,lo8(-1)
 2855 0a84 97B9      		out 39-32,r25
 2856               	.LM413:
 2857 0a86 80EF      		ldi r24,lo8(-16)
 2858 0a88 8AB9      		out 42-32,r24
 2859               	.LM414:
 2860 0a8a 11B8      		out 33-32,__zero_reg__
 2861               	.LM415:
 2862 0a8c 94B9      		out 36-32,r25
 2863               	.LM416:
 2864 0a8e 8091 0000 		lds r24,.LC12
 2865 0a92 9091 0000 		lds r25,(.LC12)+1
 2866 0a96 A091 0000 		lds r26,(.LC12)+2
 2867 0a9a B091 0000 		lds r27,(.LC12)+3
 2868 0a9e 8D83      		std Y+5,r24
 2869 0aa0 9E83      		std Y+6,r25
 2870 0aa2 AF83      		std Y+7,r26
 2871 0aa4 B887      		std Y+8,r27
 2872 0aa6 8091 0000 		lds r24,.LC13
 2873 0aaa 9091 0000 		lds r25,(.LC13)+1
 2874 0aae A091 0000 		lds r26,(.LC13)+2
 2875 0ab2 B091 0000 		lds r27,(.LC13)+3
 2876 0ab6 8987      		std Y+9,r24
 2877 0ab8 9A87      		std Y+10,r25
 2878 0aba AB87      		std Y+11,r26
 2879 0abc BC87      		std Y+12,r27
 2880 0abe 8091 0000 		lds r24,.LC14
 2881 0ac2 9091 0000 		lds r25,(.LC14)+1
 2882 0ac6 A091 0000 		lds r26,(.LC14)+2
 2883 0aca B091 0000 		lds r27,(.LC14)+3
 2884 0ace 8D87      		std Y+13,r24
 2885 0ad0 9E87      		std Y+14,r25
 2886 0ad2 AF87      		std Y+15,r26
 2887 0ad4 B88B      		std Y+16,r27
 2888               	.LBB1339:
 2889               	.LBB1340:
 2890               	.LM417:
 2891 0ad6 8CE0      		ldi r24,lo8(12)
 2892 0ad8 8093 C400 		sts 196,r24
 2893               	.LM418:
 2894 0adc 8091 C100 		lds r24,193
 2895 0ae0 8869      		ori r24,lo8(-104)
 2896 0ae2 8093 C100 		sts 193,r24
 2897               	.LBE1340:
 2898               	.LBE1339:
 2899               	.LBB1341:
 2900               	.LBB1342:
 2901               	.LM419:
 2902 0ae6 83E3      		ldi r24,lo8(51)
 2903 0ae8 8093 CC00 		sts 204,r24
 2904               	.LM420:
 2905 0aec 8091 C900 		lds r24,201
 2906 0af0 8869      		ori r24,lo8(-104)
 2907 0af2 8093 C900 		sts 201,r24
 2908               	.LBE1342:
 2909               	.LBE1341:
 2910               	.LM421:
 2911               	/* #APP */
 2912               	 ;  80 "main.c" 1
 2913 0af6 7894      		sei
 2914               	 ;  0 "" 2
 2915               	.LM422:
 2916               	/* #NOAPP */
 2917 0af8 0E94 0000 		call lcdinit
 2918               	.LBB1343:
 2919               	.LBB1344:
 2920               	.LM423:
 2921 0afc 80E8      		ldi r24,lo8(-128)
 2922 0afe 88B9      		out 40-32,r24
 2923               	.LM424:
 2924 0b00 00E4      		ldi r16,lo8(64)
 2925 0b02 F02E      		mov r15,r16
 2926 0b04 FBB8      		out 43-32,r15
 2927               	.LBB1345:
 2928               	.LBB1346:
 2929               	.LBB1347:
 2930               	.LBB1348:
 2931               	.LM425:
 2932 0b06 00ED      		ldi r16,lo8(2000)
 2933 0b08 17E0      		ldi r17,hi8(2000)
 2934 0b0a C801      		movw r24,r16
 2935               	.LVL102:
 2936               	/* #APP */
 2937               	 ;  105 "c:/winavr-20100110/lib/gcc/../../avr/include/util/delay_basic.h" 1
 2938 0b0c 0197      		1: sbiw r24,1
 2939 0b0e 01F4      		brne 1b
 2940               	 ;  0 "" 2
 2941               	/* #NOAPP */
 2942               	.LBE1348:
 2943               	.LBE1347:
 2944               	.LBE1346:
 2945               	.LBE1345:
 2946               	.LM426:
 2947 0b10 1BB8      		out 43-32,__zero_reg__
 2948               	.LBE1344:
 2949               	.LBE1343:
 2950               	.LM427:
 2951 0b12 80E0      		ldi r24,lo8(.LC15)
 2952 0b14 90E0      		ldi r25,hi8(.LC15)
 2953               	.LVL103:
 2954 0b16 0E94 0000 		call string
 2955               	.LBB1349:
 2956               	.LBB1350:
 2957               	.LM428:
 2958 0b1a 80EC      		ldi r24,lo8(-64)
 2959 0b1c 88B9      		out 40-32,r24
 2960               	.LM429:
 2961 0b1e FBB8      		out 43-32,r15
 2962               	.LBB1351:
 2963               	.LBB1352:
 2964               	.LBB1353:
 2965               	.LBB1354:
 2966               	.LM430:
 2967 0b20 C801      		movw r24,r16
 2968               	.LVL104:
 2969               	/* #APP */
 2970               	 ;  105 "c:/winavr-20100110/lib/gcc/../../avr/include/util/delay_basic.h" 1
 2971 0b22 0197      		1: sbiw r24,1
 2972 0b24 01F4      		brne 1b
 2973               	 ;  0 "" 2
 2974               	/* #NOAPP */
 2975               	.LBE1354:
 2976               	.LBE1353:
 2977               	.LBE1352:
 2978               	.LBE1351:
 2979               	.LM431:
 2980 0b26 1BB8      		out 43-32,__zero_reg__
 2981               	.LBE1350:
 2982               	.LBE1349:
 2983               	.LM432:
 2984 0b28 15B8      		out 37-32,__zero_reg__
 2985 0b2a 00C0      		rjmp .L396
 2986               	.LVL105:
 2987               	.L339:
 2988 0b2c 80E0      		ldi r24,lo8(0)
 2989 0b2e 90E0      		ldi r25,hi8(0)
 2990               	.LVL106:
 2991 0b30 11E0      		ldi r17,lo8(1)
 2992 0b32 612E      		mov r6,r17
 2993 0b34 712C      		mov r7,__zero_reg__
 2994 0b36 00C0      		rjmp .L392
 2995               	.LVL107:
 2996               	.L321:
 2997 0b38 81E0      		ldi r24,lo8(1)
 2998 0b3a 90E0      		ldi r25,hi8(1)
 2999               	.LVL108:
 3000               	.LBB1355:
 3001               	.LBB1356:
 3002               	.LBB1357:
 3003               	.LBB1358:
 3004               	.LM433:
 3005 0b3c B8EC      		ldi r27,lo8(200)
 3006 0b3e 8B2E      		mov r8,r27
 3007 0b40 912C      		mov r9,__zero_reg__
 3008 0b42 00C0      		rjmp .L392
 3009               	.LVL109:
 3010               	.L393:
 3011               	.LBE1358:
 3012               	.LBE1357:
 3013               	.LBE1356:
 3014               	.LBE1355:
 3015               	.LM434:
 3016 0b44 1092 0000 		sts (i)+1,__zero_reg__
 3017 0b48 1092 0000 		sts i,__zero_reg__
 3018 0b4c 00C0      		rjmp .L313
 3019               	.LVL110:
 3020               	.L314:
 3021               	.LM435:
 3022 0b4e E091 0000 		lds r30,i
 3023 0b52 F091 0000 		lds r31,(i)+1
 3024 0b56 E80D      		add r30,r8
 3025 0b58 F91D      		adc r31,r9
 3026 0b5a 1082      		st Z,__zero_reg__
 3027               	.LM436:
 3028 0b5c 8091 0000 		lds r24,i
 3029 0b60 9091 0000 		lds r25,(i)+1
 3030 0b64 0196      		adiw r24,1
 3031 0b66 9093 0000 		sts (i)+1,r25
 3032 0b6a 8093 0000 		sts i,r24
 3033               	.LVL111:
 3034               	.L313:
 3035 0b6e 8091 0000 		lds r24,i
 3036 0b72 9091 0000 		lds r25,(i)+1
 3037               	.LVL112:
 3038 0b76 0497      		sbiw r24,4
 3039 0b78 00F0      		brlo .L314
 3040               	.LM437:
 3041 0b7a 1092 0000 		sts (i)+1,__zero_reg__
 3042 0b7e 1092 0000 		sts i,__zero_reg__
 3043 0b82 00C0      		rjmp .L389
 3044               	.LVL113:
 3045               	.L317:
 3046               	.LM438:
 3047 0b84 0E94 0000 		call get_touch
 3048               	.LVL114:
 3049               	.LM439:
 3050 0b88 8823      		tst r24
 3051               	.LVL115:
 3052 0b8a 01F0      		breq .L389
 3053               	.LM440:
 3054 0b8c E091 0000 		lds r30,i
 3055 0b90 F091 0000 		lds r31,(i)+1
 3056 0b94 E80D      		add r30,r8
 3057 0b96 F91D      		adc r31,r9
 3058 0b98 8083      		st Z,r24
 3059               	.LM441:
 3060 0b9a 8091 0000 		lds r24,i
 3061 0b9e 9091 0000 		lds r25,(i)+1
 3062               	.LVL116:
 3063 0ba2 0196      		adiw r24,1
 3064 0ba4 9093 0000 		sts (i)+1,r25
 3065 0ba8 8093 0000 		sts i,r24
 3066 0bac 80E1      		ldi r24,lo8(10000)
 3067 0bae 97E2      		ldi r25,hi8(10000)
 3068               	.LVL117:
 3069               	.L316:
 3070               	.LBB1362:
 3071               	.LBB1363:
 3072               	.LBB1364:
 3073               	.LBB1365:
 3074               	.LM442:
 3075 0bb0 F201      		movw r30,r4
 3076               	.LVL118:
 3077               	/* #APP */
 3078               	 ;  105 "c:/winavr-20100110/lib/gcc/../../avr/include/util/delay_basic.h" 1
 3079 0bb2 3197      		1: sbiw r30,1
 3080 0bb4 01F4      		brne 1b
 3081               	 ;  0 "" 2
 3082               	/* #NOAPP */
 3083               	.LBE1365:
 3084               	.LBE1364:
 3085               	.LM443:
 3086 0bb6 0197      		sbiw r24,1
 3087               	.LM444:
 3088 0bb8 01F4      		brne .L316
 3089               	.LVL119:
 3090               	.L389:
 3091               	.LBE1363:
 3092               	.LBE1362:
 3093               	.LM445:
 3094 0bba 8091 0000 		lds r24,i
 3095 0bbe 9091 0000 		lds r25,(i)+1
 3096               	.LVL120:
 3097 0bc2 0497      		sbiw r24,4
 3098 0bc4 00F0      		brlo .L317
 3099               	.LBB1369:
 3100               	.LBB1370:
 3101               	.LM446:
 3102 0bc6 A8B8      		out 40-32,r10
 3103               	.LM447:
 3104 0bc8 BBB8      		out 43-32,r11
 3105               	.LBB1371:
 3106               	.LBB1372:
 3107               	.LBB1373:
 3108               	.LBB1374:
 3109               	.LM448:
 3110 0bca C701      		movw r24,r14
 3111               	.LVL121:
 3112               	/* #APP */
 3113               	 ;  105 "c:/winavr-20100110/lib/gcc/../../avr/include/util/delay_basic.h" 1
 3114 0bcc 0197      		1: sbiw r24,1
 3115 0bce 01F4      		brne 1b
 3116               	 ;  0 "" 2
 3117               	/* #NOAPP */
 3118               	.LBE1374:
 3119               	.LBE1373:
 3120               	.LBE1372:
 3121               	.LBE1371:
 3122               	.LM449:
 3123 0bd0 1BB8      		out 43-32,__zero_reg__
 3124               	.LBE1370:
 3125               	.LBE1369:
 3126               	.LBB1380:
 3127               	.LBB1381:
 3128               	.LM450:
 3129 0bd2 80E8      		ldi r24,lo8(-128)
 3130               	.LVL122:
 3131 0bd4 88B9      		out 40-32,r24
 3132               	.LM451:
 3133 0bd6 BBB8      		out 43-32,r11
 3134               	.LBB1382:
 3135               	.LBB1383:
 3136               	.LBB1384:
 3137               	.LBB1385:
 3138               	.LM452:
 3139 0bd8 C701      		movw r24,r14
 3140               	.LVL123:
 3141               	/* #APP */
 3142               	 ;  105 "c:/winavr-20100110/lib/gcc/../../avr/include/util/delay_basic.h" 1
 3143 0bda 0197      		1: sbiw r24,1
 3144 0bdc 01F4      		brne 1b
 3145               	 ;  0 "" 2
 3146               	/* #NOAPP */
 3147               	.LBE1385:
 3148               	.LBE1384:
 3149               	.LBE1383:
 3150               	.LBE1382:
 3151               	.LM453:
 3152 0bde 1BB8      		out 43-32,__zero_reg__
 3153               	.LBE1381:
 3154               	.LBE1380:
 3155               	.LM454:
 3156 0be0 80E0      		ldi r24,lo8(.LC15)
 3157 0be2 90E0      		ldi r25,hi8(.LC15)
 3158               	.LVL124:
 3159 0be4 0E94 0000 		call string
 3160               	.LVL125:
 3161               	.LBB1386:
 3162               	.LBB1387:
 3163               	.LM455:
 3164 0be8 80EC      		ldi r24,lo8(-64)
 3165 0bea 88B9      		out 40-32,r24
 3166               	.LM456:
 3167 0bec BBB8      		out 43-32,r11
 3168               	.LBB1388:
 3169               	.LBB1389:
 3170               	.LBB1390:
 3171               	.LBB1391:
 3172               	.LM457:
 3173 0bee C701      		movw r24,r14
 3174               	.LVL126:
 3175               	/* #APP */
 3176               	 ;  105 "c:/winavr-20100110/lib/gcc/../../avr/include/util/delay_basic.h" 1
 3177 0bf0 0197      		1: sbiw r24,1
 3178 0bf2 01F4      		brne 1b
 3179               	 ;  0 "" 2
 3180               	/* #NOAPP */
 3181               	.LBE1391:
 3182               	.LBE1390:
 3183               	.LBE1389:
 3184               	.LBE1388:
 3185               	.LM458:
 3186 0bf4 1BB8      		out 43-32,__zero_reg__
 3187               	.LBE1387:
 3188               	.LBE1386:
 3189               	.LM459:
 3190 0bf6 80E0      		ldi r24,lo8(.LC16)
 3191 0bf8 90E0      		ldi r25,hi8(.LC16)
 3192               	.LVL127:
 3193 0bfa 0E94 0000 		call string
 3194 0bfe 80E2      		ldi r24,lo8(20000)
 3195 0c00 9EE4      		ldi r25,hi8(20000)
 3196               	.LVL128:
 3197               	.L318:
 3198               	.LBB1392:
 3199               	.LBB1393:
 3200               	.LBB1394:
 3201               	.LBB1395:
 3202               	.LM460:
 3203 0c02 F201      		movw r30,r4
 3204               	.LVL129:
 3205               	/* #APP */
 3206               	 ;  105 "c:/winavr-20100110/lib/gcc/../../avr/include/util/delay_basic.h" 1
 3207 0c04 3197      		1: sbiw r30,1
 3208 0c06 01F4      		brne 1b
 3209               	 ;  0 "" 2
 3210               	/* #NOAPP */
 3211               	.LBE1395:
 3212               	.LBE1394:
 3213               	.LM461:
 3214 0c08 0197      		sbiw r24,1
 3215               	.LM462:
 3216 0c0a 01F4      		brne .L318
 3217               	.LBE1393:
 3218               	.LBE1392:
 3219               	.LBB1396:
 3220               	.LBB1397:
 3221               	.LM463:
 3222 0c0c CC24      		clr r12
 3223 0c0e C394      		inc r12
 3224 0c10 A8B8      		out 40-32,r10
 3225               	.LM464:
 3226 0c12 60E4      		ldi r22,lo8(64)
 3227 0c14 D62E      		mov r13,r22
 3228 0c16 BBB8      		out 43-32,r11
 3229               	.LBB1398:
 3230               	.LBB1399:
 3231               	.LBB1400:
 3232               	.LBB1401:
 3233               	.LM465:
 3234 0c18 00ED      		ldi r16,lo8(2000)
 3235 0c1a 17E0      		ldi r17,hi8(2000)
 3236 0c1c C701      		movw r24,r14
 3237               	.LVL130:
 3238               	/* #APP */
 3239               	 ;  105 "c:/winavr-20100110/lib/gcc/../../avr/include/util/delay_basic.h" 1
 3240 0c1e 0197      		1: sbiw r24,1
 3241 0c20 01F4      		brne 1b
 3242               	 ;  0 "" 2
 3243               	/* #NOAPP */
 3244               	.LBE1401:
 3245               	.LBE1400:
 3246               	.LBE1399:
 3247               	.LBE1398:
 3248               	.LM466:
 3249 0c22 1BB8      		out 43-32,__zero_reg__
 3250               	.LBE1397:
 3251               	.LBE1396:
 3252               	.LM467:
 3253 0c24 CE01      		movw r24,r28
 3254               	.LVL131:
 3255 0c26 0596      		adiw r24,5
 3256 0c28 B401      		movw r22,r8
 3257 0c2a 44E0      		ldi r20,lo8(4)
 3258 0c2c 50E0      		ldi r21,hi8(4)
 3259 0c2e 0E94 0000 		call strncmp
 3260               	.LVL132:
 3261 0c32 0097      		sbiw r24,0
 3262 0c34 01F4      		brne .L319
 3263               	.LBB1402:
 3264               	.LBB1403:
 3265               	.LM468:
 3266 0c36 C8B8      		out 40-32,r12
 3267               	.LM469:
 3268 0c38 DBB8      		out 43-32,r13
 3269               	.LBB1404:
 3270               	.LBB1405:
 3271               	.LBB1406:
 3272               	.LBB1407:
 3273               	.LM470:
 3274 0c3a C801      		movw r24,r16
 3275               	.LVL133:
 3276               	/* #APP */
 3277               	 ;  105 "c:/winavr-20100110/lib/gcc/../../avr/include/util/delay_basic.h" 1
 3278 0c3c 0197      		1: sbiw r24,1
 3279 0c3e 01F4      		brne 1b
 3280               	 ;  0 "" 2
 3281               	/* #NOAPP */
 3282               	.LBE1407:
 3283               	.LBE1406:
 3284               	.LBE1405:
 3285               	.LBE1404:
 3286               	.LM471:
 3287 0c40 1BB8      		out 43-32,__zero_reg__
 3288               	.LBE1403:
 3289               	.LBE1402:
 3290               	.LBB1408:
 3291               	.LBB1409:
 3292               	.LM472:
 3293 0c42 80E8      		ldi r24,lo8(-128)
 3294               	.LVL134:
 3295 0c44 88B9      		out 40-32,r24
 3296               	.LM473:
 3297 0c46 DBB8      		out 43-32,r13
 3298               	.LBB1410:
 3299               	.LBB1411:
 3300               	.LBB1412:
 3301               	.LBB1413:
 3302               	.LM474:
 3303 0c48 C801      		movw r24,r16
 3304               	.LVL135:
 3305               	/* #APP */
 3306               	 ;  105 "c:/winavr-20100110/lib/gcc/../../avr/include/util/delay_basic.h" 1
 3307 0c4a 0197      		1: sbiw r24,1
 3308 0c4c 01F4      		brne 1b
 3309               	 ;  0 "" 2
 3310               	/* #NOAPP */
 3311               	.LBE1413:
 3312               	.LBE1412:
 3313               	.LBE1411:
 3314               	.LBE1410:
 3315               	.LM475:
 3316 0c4e 1BB8      		out 43-32,__zero_reg__
 3317               	.LBE1409:
 3318               	.LBE1408:
 3319               	.LM476:
 3320 0c50 80E0      		ldi r24,lo8(.LC17)
 3321 0c52 90E0      		ldi r25,hi8(.LC17)
 3322               	.LVL136:
 3323 0c54 0E94 0000 		call string
 3324               	.LBB1414:
 3325               	.LBB1415:
 3326               	.LM477:
 3327 0c58 80EC      		ldi r24,lo8(-64)
 3328 0c5a 88B9      		out 40-32,r24
 3329               	.LM478:
 3330 0c5c DBB8      		out 43-32,r13
 3331               	.LBB1416:
 3332               	.LBB1417:
 3333               	.LBB1418:
 3334               	.LBB1419:
 3335               	.LM479:
 3336 0c5e C801      		movw r24,r16
 3337               	.LVL137:
 3338               	/* #APP */
 3339               	 ;  105 "c:/winavr-20100110/lib/gcc/../../avr/include/util/delay_basic.h" 1
 3340 0c60 0197      		1: sbiw r24,1
 3341 0c62 01F4      		brne 1b
 3342               	 ;  0 "" 2
 3343               	/* #NOAPP */
 3344               	.LBE1419:
 3345               	.LBE1418:
 3346               	.LBE1417:
 3347               	.LBE1416:
 3348               	.LM480:
 3349 0c64 1BB8      		out 43-32,__zero_reg__
 3350               	.LBE1415:
 3351               	.LBE1414:
 3352               	.LM481:
 3353 0c66 80E0      		ldi r24,lo8(.LC18)
 3354 0c68 90E0      		ldi r25,hi8(.LC18)
 3355               	.LVL138:
 3356 0c6a 0E94 0000 		call string
 3357 0c6e 80E3      		ldi r24,lo8(30000)
 3358 0c70 95E7      		ldi r25,hi8(30000)
 3359               	.LVL139:
 3360               	.LBB1420:
 3361               	.LBB1421:
 3362               	.LBB1422:
 3363               	.LBB1423:
 3364               	.LM482:
 3365 0c72 28EC      		ldi r18,lo8(200)
 3366 0c74 30E0      		ldi r19,hi8(200)
 3367               	.L320:
 3368 0c76 F901      		movw r30,r18
 3369               	.LVL140:
 3370               	/* #APP */
 3371               	 ;  105 "c:/winavr-20100110/lib/gcc/../../avr/include/util/delay_basic.h" 1
 3372 0c78 3197      		1: sbiw r30,1
 3373 0c7a 01F4      		brne 1b
 3374               	 ;  0 "" 2
 3375               	/* #NOAPP */
 3376               	.LBE1423:
 3377               	.LBE1422:
 3378               	.LM483:
 3379 0c7c 0197      		sbiw r24,1
 3380               	.LM484:
 3381 0c7e 01F4      		brne .L320
 3382 0c80 00C0      		rjmp .L321
 3383               	.LVL141:
 3384               	.L319:
 3385               	.LBE1421:
 3386               	.LBE1420:
 3387               	.LM485:
 3388 0c82 CE01      		movw r24,r28
 3389 0c84 0996      		adiw r24,9
 3390 0c86 B401      		movw r22,r8
 3391 0c88 44E0      		ldi r20,lo8(4)
 3392 0c8a 50E0      		ldi r21,hi8(4)
 3393 0c8c 0E94 0000 		call strncmp
 3394 0c90 0097      		sbiw r24,0
 3395 0c92 01F4      		brne .L322
 3396               	.LBB1424:
 3397               	.LBB1425:
 3398               	.LM486:
 3399 0c94 C8B8      		out 40-32,r12
 3400               	.LM487:
 3401 0c96 DBB8      		out 43-32,r13
 3402               	.LBB1426:
 3403               	.LBB1427:
 3404               	.LBB1428:
 3405               	.LBB1429:
 3406               	.LM488:
 3407 0c98 C801      		movw r24,r16
 3408               	.LVL142:
 3409               	/* #APP */
 3410               	 ;  105 "c:/winavr-20100110/lib/gcc/../../avr/include/util/delay_basic.h" 1
 3411 0c9a 0197      		1: sbiw r24,1
 3412 0c9c 01F4      		brne 1b
 3413               	 ;  0 "" 2
 3414               	/* #NOAPP */
 3415               	.LBE1429:
 3416               	.LBE1428:
 3417               	.LBE1427:
 3418               	.LBE1426:
 3419               	.LM489:
 3420 0c9e 1BB8      		out 43-32,__zero_reg__
 3421               	.LBE1425:
 3422               	.LBE1424:
 3423               	.LBB1430:
 3424               	.LBB1431:
 3425               	.LM490:
 3426 0ca0 80E8      		ldi r24,lo8(-128)
 3427               	.LVL143:
 3428 0ca2 88B9      		out 40-32,r24
 3429               	.LM491:
 3430 0ca4 DBB8      		out 43-32,r13
 3431               	.LBB1432:
 3432               	.LBB1433:
 3433               	.LBB1434:
 3434               	.LBB1435:
 3435               	.LM492:
 3436 0ca6 C801      		movw r24,r16
 3437               	.LVL144:
 3438               	/* #APP */
 3439               	 ;  105 "c:/winavr-20100110/lib/gcc/../../avr/include/util/delay_basic.h" 1
 3440 0ca8 0197      		1: sbiw r24,1
 3441 0caa 01F4      		brne 1b
 3442               	 ;  0 "" 2
 3443               	/* #NOAPP */
 3444               	.LBE1435:
 3445               	.LBE1434:
 3446               	.LBE1433:
 3447               	.LBE1432:
 3448               	.LM493:
 3449 0cac 1BB8      		out 43-32,__zero_reg__
 3450               	.LBE1431:
 3451               	.LBE1430:
 3452               	.LM494:
 3453 0cae 80E0      		ldi r24,lo8(.LC17)
 3454 0cb0 90E0      		ldi r25,hi8(.LC17)
 3455               	.LVL145:
 3456 0cb2 0E94 0000 		call string
 3457               	.LBB1436:
 3458               	.LBB1437:
 3459               	.LM495:
 3460 0cb6 80EC      		ldi r24,lo8(-64)
 3461 0cb8 88B9      		out 40-32,r24
 3462               	.LM496:
 3463 0cba DBB8      		out 43-32,r13
 3464               	.LBB1438:
 3465               	.LBB1439:
 3466               	.LBB1440:
 3467               	.LBB1441:
 3468               	.LM497:
 3469 0cbc C801      		movw r24,r16
 3470               	.LVL146:
 3471               	/* #APP */
 3472               	 ;  105 "c:/winavr-20100110/lib/gcc/../../avr/include/util/delay_basic.h" 1
 3473 0cbe 0197      		1: sbiw r24,1
 3474 0cc0 01F4      		brne 1b
 3475               	 ;  0 "" 2
 3476               	/* #NOAPP */
 3477               	.LBE1441:
 3478               	.LBE1440:
 3479               	.LBE1439:
 3480               	.LBE1438:
 3481               	.LM498:
 3482 0cc2 1BB8      		out 43-32,__zero_reg__
 3483               	.LBE1437:
 3484               	.LBE1436:
 3485               	.LM499:
 3486 0cc4 80E0      		ldi r24,lo8(.LC19)
 3487 0cc6 90E0      		ldi r25,hi8(.LC19)
 3488               	.LVL147:
 3489 0cc8 0E94 0000 		call string
 3490 0ccc 80E3      		ldi r24,lo8(30000)
 3491 0cce 95E7      		ldi r25,hi8(30000)
 3492               	.LVL148:
 3493               	.LBB1442:
 3494               	.LBB1443:
 3495               	.LBB1444:
 3496               	.LBB1445:
 3497               	.LM500:
 3498 0cd0 28EC      		ldi r18,lo8(200)
 3499 0cd2 30E0      		ldi r19,hi8(200)
 3500               	.L323:
 3501 0cd4 F901      		movw r30,r18
 3502               	.LVL149:
 3503               	/* #APP */
 3504               	 ;  105 "c:/winavr-20100110/lib/gcc/../../avr/include/util/delay_basic.h" 1
 3505 0cd6 3197      		1: sbiw r30,1
 3506 0cd8 01F4      		brne 1b
 3507               	 ;  0 "" 2
 3508               	/* #NOAPP */
 3509               	.LBE1445:
 3510               	.LBE1444:
 3511               	.LM501:
 3512 0cda 0197      		sbiw r24,1
 3513               	.LM502:
 3514 0cdc 01F4      		brne .L323
 3515 0cde 00C0      		rjmp .L321
 3516               	.LVL150:
 3517               	.L322:
 3518               	.LBE1443:
 3519               	.LBE1442:
 3520               	.LM503:
 3521 0ce0 C101      		movw r24,r2
 3522 0ce2 B401      		movw r22,r8
 3523 0ce4 44E0      		ldi r20,lo8(4)
 3524 0ce6 50E0      		ldi r21,hi8(4)
 3525 0ce8 0E94 0000 		call strncmp
 3526 0cec 0097      		sbiw r24,0
 3527 0cee 01F4      		brne .L324
 3528               	.LBB1446:
 3529               	.LBB1447:
 3530               	.LM504:
 3531 0cf0 C8B8      		out 40-32,r12
 3532               	.LM505:
 3533 0cf2 DBB8      		out 43-32,r13
 3534               	.LBB1448:
 3535               	.LBB1449:
 3536               	.LBB1450:
 3537               	.LBB1451:
 3538               	.LM506:
 3539 0cf4 C801      		movw r24,r16
 3540               	.LVL151:
 3541               	/* #APP */
 3542               	 ;  105 "c:/winavr-20100110/lib/gcc/../../avr/include/util/delay_basic.h" 1
 3543 0cf6 0197      		1: sbiw r24,1
 3544 0cf8 01F4      		brne 1b
 3545               	 ;  0 "" 2
 3546               	/* #NOAPP */
 3547               	.LBE1451:
 3548               	.LBE1450:
 3549               	.LBE1449:
 3550               	.LBE1448:
 3551               	.LM507:
 3552 0cfa 1BB8      		out 43-32,__zero_reg__
 3553               	.LBE1447:
 3554               	.LBE1446:
 3555               	.LBB1452:
 3556               	.LBB1453:
 3557               	.LM508:
 3558 0cfc 80E8      		ldi r24,lo8(-128)
 3559               	.LVL152:
 3560 0cfe 88B9      		out 40-32,r24
 3561               	.LM509:
 3562 0d00 DBB8      		out 43-32,r13
 3563               	.LBB1454:
 3564               	.LBB1455:
 3565               	.LBB1456:
 3566               	.LBB1457:
 3567               	.LM510:
 3568 0d02 C801      		movw r24,r16
 3569               	.LVL153:
 3570               	/* #APP */
 3571               	 ;  105 "c:/winavr-20100110/lib/gcc/../../avr/include/util/delay_basic.h" 1
 3572 0d04 0197      		1: sbiw r24,1
 3573 0d06 01F4      		brne 1b
 3574               	 ;  0 "" 2
 3575               	/* #NOAPP */
 3576               	.LBE1457:
 3577               	.LBE1456:
 3578               	.LBE1455:
 3579               	.LBE1454:
 3580               	.LM511:
 3581 0d08 1BB8      		out 43-32,__zero_reg__
 3582               	.LBE1453:
 3583               	.LBE1452:
 3584               	.LM512:
 3585 0d0a 80E0      		ldi r24,lo8(.LC17)
 3586 0d0c 90E0      		ldi r25,hi8(.LC17)
 3587               	.LVL154:
 3588 0d0e 0E94 0000 		call string
 3589               	.LBB1458:
 3590               	.LBB1459:
 3591               	.LM513:
 3592 0d12 80EC      		ldi r24,lo8(-64)
 3593 0d14 88B9      		out 40-32,r24
 3594               	.LM514:
 3595 0d16 DBB8      		out 43-32,r13
 3596               	.LBB1460:
 3597               	.LBB1461:
 3598               	.LBB1462:
 3599               	.LBB1463:
 3600               	.LM515:
 3601 0d18 C801      		movw r24,r16
 3602               	.LVL155:
 3603               	/* #APP */
 3604               	 ;  105 "c:/winavr-20100110/lib/gcc/../../avr/include/util/delay_basic.h" 1
 3605 0d1a 0197      		1: sbiw r24,1
 3606 0d1c 01F4      		brne 1b
 3607               	 ;  0 "" 2
 3608               	/* #NOAPP */
 3609               	.LBE1463:
 3610               	.LBE1462:
 3611               	.LBE1461:
 3612               	.LBE1460:
 3613               	.LM516:
 3614 0d1e 1BB8      		out 43-32,__zero_reg__
 3615               	.LBE1459:
 3616               	.LBE1458:
 3617               	.LM517:
 3618 0d20 80E0      		ldi r24,lo8(.LC20)
 3619 0d22 90E0      		ldi r25,hi8(.LC20)
 3620               	.LVL156:
 3621 0d24 0E94 0000 		call string
 3622 0d28 80E3      		ldi r24,lo8(30000)
 3623 0d2a 95E7      		ldi r25,hi8(30000)
 3624               	.LVL157:
 3625               	.LBB1464:
 3626               	.LBB1465:
 3627               	.LBB1466:
 3628               	.LBB1467:
 3629               	.LM518:
 3630 0d2c 28EC      		ldi r18,lo8(200)
 3631 0d2e 30E0      		ldi r19,hi8(200)
 3632               	.L325:
 3633 0d30 F901      		movw r30,r18
 3634               	.LVL158:
 3635               	/* #APP */
 3636               	 ;  105 "c:/winavr-20100110/lib/gcc/../../avr/include/util/delay_basic.h" 1
 3637 0d32 3197      		1: sbiw r30,1
 3638 0d34 01F4      		brne 1b
 3639               	 ;  0 "" 2
 3640               	/* #NOAPP */
 3641               	.LBE1467:
 3642               	.LBE1466:
 3643               	.LM519:
 3644 0d36 0197      		sbiw r24,1
 3645               	.LM520:
 3646 0d38 01F4      		brne .L325
 3647 0d3a 00C0      		rjmp .L321
 3648               	.LVL159:
 3649               	.L324:
 3650               	.LBE1465:
 3651               	.LBE1464:
 3652               	.LBB1468:
 3653               	.LBB1469:
 3654               	.LM521:
 3655 0d3c A8B8      		out 40-32,r10
 3656               	.LM522:
 3657 0d3e BBB8      		out 43-32,r11
 3658               	.LBB1470:
 3659               	.LBB1471:
 3660               	.LBB1472:
 3661               	.LBB1473:
 3662               	.LM523:
 3663 0d40 C701      		movw r24,r14
 3664               	.LVL160:
 3665               	/* #APP */
 3666               	 ;  105 "c:/winavr-20100110/lib/gcc/../../avr/include/util/delay_basic.h" 1
 3667 0d42 0197      		1: sbiw r24,1
 3668 0d44 01F4      		brne 1b
 3669               	 ;  0 "" 2
 3670               	/* #NOAPP */
 3671               	.LBE1473:
 3672               	.LBE1472:
 3673               	.LBE1471:
 3674               	.LBE1470:
 3675               	.LM524:
 3676 0d46 1BB8      		out 43-32,__zero_reg__
 3677               	.LBE1469:
 3678               	.LBE1468:
 3679               	.LBB1474:
 3680               	.LBB1475:
 3681               	.LM525:
 3682 0d48 80E8      		ldi r24,lo8(-128)
 3683               	.LVL161:
 3684 0d4a 88B9      		out 40-32,r24
 3685               	.LM526:
 3686 0d4c BBB8      		out 43-32,r11
 3687               	.LBB1476:
 3688               	.LBB1477:
 3689               	.LBB1478:
 3690               	.LBB1479:
 3691               	.LM527:
 3692 0d4e C701      		movw r24,r14
 3693               	.LVL162:
 3694               	/* #APP */
 3695               	 ;  105 "c:/winavr-20100110/lib/gcc/../../avr/include/util/delay_basic.h" 1
 3696 0d50 0197      		1: sbiw r24,1
 3697 0d52 01F4      		brne 1b
 3698               	 ;  0 "" 2
 3699               	/* #NOAPP */
 3700               	.LBE1479:
 3701               	.LBE1478:
 3702               	.LBE1477:
 3703               	.LBE1476:
 3704               	.LM528:
 3705 0d54 1BB8      		out 43-32,__zero_reg__
 3706               	.LBE1475:
 3707               	.LBE1474:
 3708               	.LM529:
 3709 0d56 80E0      		ldi r24,lo8(.LC15)
 3710 0d58 90E0      		ldi r25,hi8(.LC15)
 3711               	.LVL163:
 3712 0d5a 0E94 0000 		call string
 3713               	.LBB1480:
 3714               	.LBB1481:
 3715               	.LM530:
 3716 0d5e 80EC      		ldi r24,lo8(-64)
 3717 0d60 88B9      		out 40-32,r24
 3718               	.LM531:
 3719 0d62 BBB8      		out 43-32,r11
 3720               	.LBB1482:
 3721               	.LBB1483:
 3722               	.LBB1484:
 3723               	.LBB1485:
 3724               	.LM532:
 3725 0d64 C701      		movw r24,r14
 3726               	.LVL164:
 3727               	/* #APP */
 3728               	 ;  105 "c:/winavr-20100110/lib/gcc/../../avr/include/util/delay_basic.h" 1
 3729 0d66 0197      		1: sbiw r24,1
 3730 0d68 01F4      		brne 1b
 3731               	 ;  0 "" 2
 3732               	/* #NOAPP */
 3733               	.LBE1485:
 3734               	.LBE1484:
 3735               	.LBE1483:
 3736               	.LBE1482:
 3737               	.LM533:
 3738 0d6a 1BB8      		out 43-32,__zero_reg__
 3739               	.LBE1481:
 3740               	.LBE1480:
 3741               	.LM534:
 3742 0d6c 80E0      		ldi r24,lo8(.LC21)
 3743 0d6e 90E0      		ldi r25,hi8(.LC21)
 3744               	.LVL165:
 3745 0d70 0E94 0000 		call string
 3746 0d74 00C0      		rjmp .L393
 3747               	.LVL166:
 3748               	.L392:
 3749               	.LM535:
 3750 0d76 0197      		sbiw r24,1
 3751 0d78 01F0      		breq .+2
 3752 0d7a 00C0      		rjmp .L326
 3753               	.LBB1486:
 3754               	.LBB1487:
 3755               	.LM536:
 3756 0d7c 80E8      		ldi r24,lo8(-128)
 3757               	.LVL167:
 3758 0d7e 88B9      		out 40-32,r24
 3759               	.LM537:
 3760 0d80 50E4      		ldi r21,lo8(64)
 3761 0d82 F52E      		mov r15,r21
 3762 0d84 FBB8      		out 43-32,r15
 3763               	.LBB1488:
 3764               	.LBB1489:
 3765               	.LBB1490:
 3766               	.LBB1491:
 3767               	.LM538:
 3768 0d86 00ED      		ldi r16,lo8(2000)
 3769 0d88 17E0      		ldi r17,hi8(2000)
 3770 0d8a C801      		movw r24,r16
 3771               	.LVL168:
 3772               	/* #APP */
 3773               	 ;  105 "c:/winavr-20100110/lib/gcc/../../avr/include/util/delay_basic.h" 1
 3774 0d8c 0197      		1: sbiw r24,1
 3775 0d8e 01F4      		brne 1b
 3776               	 ;  0 "" 2
 3777               	/* #NOAPP */
 3778               	.LBE1491:
 3779               	.LBE1490:
 3780               	.LBE1489:
 3781               	.LBE1488:
 3782               	.LM539:
 3783 0d90 1BB8      		out 43-32,__zero_reg__
 3784               	.LBE1487:
 3785               	.LBE1486:
 3786               	.LM540:
 3787 0d92 80E0      		ldi r24,lo8(.LC22)
 3788 0d94 90E0      		ldi r25,hi8(.LC22)
 3789               	.LVL169:
 3790 0d96 0E94 0000 		call string
 3791               	.LVL170:
 3792               	.LBB1492:
 3793               	.LBB1493:
 3794               	.LM541:
 3795 0d9a 80EC      		ldi r24,lo8(-64)
 3796 0d9c 88B9      		out 40-32,r24
 3797               	.LM542:
 3798 0d9e FBB8      		out 43-32,r15
 3799               	.LBB1494:
 3800               	.LBB1495:
 3801               	.LBB1496:
 3802               	.LBB1497:
 3803               	.LM543:
 3804 0da0 C801      		movw r24,r16
 3805               	.LVL171:
 3806               	/* #APP */
 3807               	 ;  105 "c:/winavr-20100110/lib/gcc/../../avr/include/util/delay_basic.h" 1
 3808 0da2 0197      		1: sbiw r24,1
 3809 0da4 01F4      		brne 1b
 3810               	 ;  0 "" 2
 3811               	/* #NOAPP */
 3812               	.LBE1497:
 3813               	.LBE1496:
 3814               	.LBE1495:
 3815               	.LBE1494:
 3816               	.LM544:
 3817 0da6 1BB8      		out 43-32,__zero_reg__
 3818               	.LBE1493:
 3819               	.LBE1492:
 3820               	.LM545:
 3821 0da8 80E0      		ldi r24,lo8(.LC23)
 3822 0daa 90E0      		ldi r25,hi8(.LC23)
 3823               	.LVL172:
 3824 0dac 0E94 0000 		call string
 3825 0db0 80E2      		ldi r24,lo8(20000)
 3826 0db2 9EE4      		ldi r25,hi8(20000)
 3827               	.LVL173:
 3828               	.L327:
 3829               	.LBB1498:
 3830               	.LBB1499:
 3831               	.LBB1500:
 3832               	.LBB1501:
 3833               	.LM546:
 3834 0db4 F401      		movw r30,r8
 3835               	.LVL174:
 3836               	/* #APP */
 3837               	 ;  105 "c:/winavr-20100110/lib/gcc/../../avr/include/util/delay_basic.h" 1
 3838 0db6 3197      		1: sbiw r30,1
 3839 0db8 01F4      		brne 1b
 3840               	 ;  0 "" 2
 3841               	/* #NOAPP */
 3842               	.LBE1501:
 3843               	.LBE1500:
 3844               	.LM547:
 3845 0dba 0197      		sbiw r24,1
 3846               	.LM548:
 3847 0dbc 01F4      		brne .L327
 3848 0dbe 00C0      		rjmp .L398
 3849               	.LVL175:
 3850               	.L333:
 3851               	.LBE1499:
 3852               	.LBE1498:
 3853               	.LM549:
 3854 0dc0 0E94 0000 		call genimg
 3855               	.LVL176:
 3856 0dc4 88E8      		ldi r24,lo8(5000)
 3857 0dc6 93E1      		ldi r25,hi8(5000)
 3858               	.LVL177:
 3859               	.L329:
 3860               	.LBB1502:
 3861               	.LBB1503:
 3862               	.LBB1504:
 3863               	.LBB1505:
 3864               	.LM550:
 3865 0dc8 F401      		movw r30,r8
 3866               	/* #APP */
 3867               	 ;  105 "c:/winavr-20100110/lib/gcc/../../avr/include/util/delay_basic.h" 1
 3868 0dca 3197      		1: sbiw r30,1
 3869 0dcc 01F4      		brne 1b
 3870               	 ;  0 "" 2
 3871               	/* #NOAPP */
 3872               	.LBE1505:
 3873               	.LBE1504:
 3874               	.LM551:
 3875 0dce 0197      		sbiw r24,1
 3876               	.LM552:
 3877 0dd0 01F4      		brne .L329
 3878               	.LBE1503:
 3879               	.LBE1502:
 3880               	.LM553:
 3881 0dd2 8091 0000 		lds r24,pk
 3882 0dd6 9091 0000 		lds r25,(pk)+1
 3883               	.LVL178:
 3884 0dda 0197      		sbiw r24,1
 3885 0ddc 01F0      		breq .+2
 3886 0dde 00C0      		rjmp .L390
 3887 0de0 01E0      		ldi r16,lo8(1)
 3888 0de2 10E0      		ldi r17,hi8(1)
 3889 0de4 20E0      		ldi r18,lo8(0)
 3890 0de6 30E0      		ldi r19,hi8(0)
 3891               	.LVL179:
 3892               	.L331:
 3893               	.LBB1506:
 3894               	.LBB1507:
 3895               	.LM554:
 3896 0de8 F901      		movw r30,r18
 3897               	.LVL180:
 3898 0dea E050      		subi r30,lo8(-(ack))
 3899 0dec F040      		sbci r31,hi8(-(ack))
 3900 0dee D901      		movw r26,r18
 3901 0df0 A050      		subi r26,lo8(-(genimg_ack))
 3902 0df2 B040      		sbci r27,hi8(-(genimg_ack))
 3903 0df4 9081      		ld r25,Z
 3904 0df6 8C91      		ld r24,X
 3905 0df8 9817      		cp r25,r24
 3906 0dfa 01F0      		breq .L330
 3907 0dfc 00E0      		ldi r16,lo8(0)
 3908 0dfe 10E0      		ldi r17,hi8(0)
 3909               	.L330:
 3910               	.LM555:
 3911 0e00 2F5F      		subi r18,lo8(-(1))
 3912 0e02 3F4F      		sbci r19,hi8(-(1))
 3913 0e04 2C30      		cpi r18,12
 3914 0e06 3105      		cpc r19,__zero_reg__
 3915 0e08 01F4      		brne .L331
 3916               	.LBE1507:
 3917               	.LM556:
 3918 0e0a 0130      		cpi r16,1
 3919 0e0c 1105      		cpc r17,__zero_reg__
 3920 0e0e 01F4      		brne .L332
 3921               	.LBB1508:
 3922               	.LBB1509:
 3923               	.LM557:
 3924 0e10 B8B8      		out 40-32,r11
 3925               	.LM558:
 3926 0e12 DBB8      		out 43-32,r13
 3927               	.LBB1510:
 3928               	.LBB1511:
 3929               	.LBB1512:
 3930               	.LBB1513:
 3931               	.LM559:
 3932 0e14 C701      		movw r24,r14
 3933               	.LVL181:
 3934               	/* #APP */
 3935               	 ;  105 "c:/winavr-20100110/lib/gcc/../../avr/include/util/delay_basic.h" 1
 3936 0e16 0197      		1: sbiw r24,1
 3937 0e18 01F4      		brne 1b
 3938               	 ;  0 "" 2
 3939               	/* #NOAPP */
 3940               	.LBE1513:
 3941               	.LBE1512:
 3942               	.LBE1511:
 3943               	.LBE1510:
 3944               	.LM560:
 3945 0e1a 1BB8      		out 43-32,__zero_reg__
 3946               	.LBE1509:
 3947               	.LBE1508:
 3948               	.LBB1514:
 3949               	.LBB1515:
 3950               	.LM561:
 3951 0e1c C8B8      		out 40-32,r12
 3952               	.LM562:
 3953 0e1e DBB8      		out 43-32,r13
 3954               	.LBB1516:
 3955               	.LBB1517:
 3956               	.LBB1518:
 3957               	.LBB1519:
 3958               	.LM563:
 3959 0e20 C701      		movw r24,r14
 3960               	.LVL182:
 3961               	/* #APP */
 3962               	 ;  105 "c:/winavr-20100110/lib/gcc/../../avr/include/util/delay_basic.h" 1
 3963 0e22 0197      		1: sbiw r24,1
 3964 0e24 01F4      		brne 1b
 3965               	 ;  0 "" 2
 3966               	/* #NOAPP */
 3967               	.LBE1519:
 3968               	.LBE1518:
 3969               	.LBE1517:
 3970               	.LBE1516:
 3971               	.LM564:
 3972 0e26 1BB8      		out 43-32,__zero_reg__
 3973               	.LBE1515:
 3974               	.LBE1514:
 3975               	.LM565:
 3976 0e28 80E0      		ldi r24,lo8(.LC24)
 3977 0e2a 90E0      		ldi r25,hi8(.LC24)
 3978               	.LVL183:
 3979 0e2c 0E94 0000 		call string
 3980               	.LVL184:
 3981               	.LM566:
 3982 0e30 1093 0000 		sts (one_time)+1,r17
 3983 0e34 0093 0000 		sts one_time,r16
 3984 0e38 00C0      		rjmp .L390
 3985               	.LVL185:
 3986               	.L332:
 3987               	.LBB1520:
 3988               	.LBB1521:
 3989               	.LM567:
 3990 0e3a B8B8      		out 40-32,r11
 3991               	.LM568:
 3992 0e3c DBB8      		out 43-32,r13
 3993               	.LBB1522:
 3994               	.LBB1523:
 3995               	.LBB1524:
 3996               	.LBB1525:
 3997               	.LM569:
 3998 0e3e C701      		movw r24,r14
 3999               	.LVL186:
 4000               	/* #APP */
 4001               	 ;  105 "c:/winavr-20100110/lib/gcc/../../avr/include/util/delay_basic.h" 1
 4002 0e40 0197      		1: sbiw r24,1
 4003 0e42 01F4      		brne 1b
 4004               	 ;  0 "" 2
 4005               	/* #NOAPP */
 4006               	.LBE1525:
 4007               	.LBE1524:
 4008               	.LBE1523:
 4009               	.LBE1522:
 4010               	.LM570:
 4011 0e44 1BB8      		out 43-32,__zero_reg__
 4012               	.LBE1521:
 4013               	.LBE1520:
 4014               	.LBB1531:
 4015               	.LBB1532:
 4016               	.LM571:
 4017 0e46 C8B8      		out 40-32,r12
 4018               	.LM572:
 4019 0e48 DBB8      		out 43-32,r13
 4020               	.LBB1533:
 4021               	.LBB1534:
 4022               	.LBB1535:
 4023               	.LBB1536:
 4024               	.LM573:
 4025 0e4a C701      		movw r24,r14
 4026               	.LVL187:
 4027               	/* #APP */
 4028               	 ;  105 "c:/winavr-20100110/lib/gcc/../../avr/include/util/delay_basic.h" 1
 4029 0e4c 0197      		1: sbiw r24,1
 4030 0e4e 01F4      		brne 1b
 4031               	 ;  0 "" 2
 4032               	/* #NOAPP */
 4033               	.LBE1536:
 4034               	.LBE1535:
 4035               	.LBE1534:
 4036               	.LBE1533:
 4037               	.LM574:
 4038 0e50 1BB8      		out 43-32,__zero_reg__
 4039               	.LBE1532:
 4040               	.LBE1531:
 4041               	.LM575:
 4042 0e52 80E0      		ldi r24,lo8(.LC25)
 4043 0e54 90E0      		ldi r25,hi8(.LC25)
 4044               	.LVL188:
 4045 0e56 0E94 0000 		call string
 4046               	.LVL189:
 4047 0e5a 00C0      		rjmp .L390
 4048               	.LVL190:
 4049               	.L398:
 4050               	.LBB1538:
 4051               	.LBB1530:
 4052               	.LM576:
 4053 0e5c BB24      		clr r11
 4054 0e5e B394      		inc r11
 4055               	.LM577:
 4056 0e60 40E4      		ldi r20,lo8(64)
 4057 0e62 D42E      		mov r13,r20
 4058               	.LBB1529:
 4059               	.LBB1528:
 4060               	.LBB1527:
 4061               	.LBB1526:
 4062               	.LM578:
 4063 0e64 30ED      		ldi r19,lo8(2000)
 4064 0e66 E32E      		mov r14,r19
 4065 0e68 37E0      		ldi r19,hi8(2000)
 4066 0e6a F32E      		mov r15,r19
 4067               	.LBE1526:
 4068               	.LBE1527:
 4069               	.LBE1528:
 4070               	.LBE1529:
 4071               	.LBE1530:
 4072               	.LBE1538:
 4073               	.LBB1539:
 4074               	.LBB1537:
 4075               	.LM579:
 4076 0e6c 20E8      		ldi r18,lo8(-128)
 4077 0e6e C22E      		mov r12,r18
 4078               	.LVL191:
 4079               	.L390:
 4080               	.LBE1537:
 4081               	.LBE1539:
 4082               	.LBE1506:
 4083               	.LM580:
 4084 0e70 8091 0000 		lds r24,one_time
 4085 0e74 9091 0000 		lds r25,(one_time)+1
 4086               	.LVL192:
 4087 0e78 892B      		or r24,r25
 4088 0e7a 01F4      		brne .+2
 4089 0e7c 00C0      		rjmp .L333
 4090               	.LM581:
 4091 0e7e 0E94 0000 		call genchar1
 4092               	.LVL193:
 4093 0e82 88E8      		ldi r24,lo8(5000)
 4094 0e84 93E1      		ldi r25,hi8(5000)
 4095               	.LVL194:
 4096               	.L334:
 4097               	.LBB1540:
 4098               	.LBB1541:
 4099               	.LBB1542:
 4100               	.LBB1543:
 4101               	.LM582:
 4102 0e86 F401      		movw r30,r8
 4103               	/* #APP */
 4104               	 ;  105 "c:/winavr-20100110/lib/gcc/../../avr/include/util/delay_basic.h" 1
 4105 0e88 3197      		1: sbiw r30,1
 4106 0e8a 01F4      		brne 1b
 4107               	 ;  0 "" 2
 4108               	/* #NOAPP */
 4109               	.LBE1543:
 4110               	.LBE1542:
 4111               	.LM583:
 4112 0e8c 0197      		sbiw r24,1
 4113               	.LM584:
 4114 0e8e 01F4      		brne .L334
 4115               	.LBE1541:
 4116               	.LBE1540:
 4117               	.LM585:
 4118 0e90 0E94 0000 		call gentemp
 4119               	.LVL195:
 4120 0e94 88E8      		ldi r24,lo8(5000)
 4121 0e96 93E1      		ldi r25,hi8(5000)
 4122               	.LVL196:
 4123               	.L335:
 4124               	.LBB1544:
 4125               	.LBB1545:
 4126               	.LBB1546:
 4127               	.LBB1547:
 4128               	.LM586:
 4129 0e98 F401      		movw r30,r8
 4130               	/* #APP */
 4131               	 ;  105 "c:/winavr-20100110/lib/gcc/../../avr/include/util/delay_basic.h" 1
 4132 0e9a 3197      		1: sbiw r30,1
 4133 0e9c 01F4      		brne 1b
 4134               	 ;  0 "" 2
 4135               	/* #NOAPP */
 4136               	.LBE1547:
 4137               	.LBE1546:
 4138               	.LM587:
 4139 0e9e 0197      		sbiw r24,1
 4140               	.LM588:
 4141 0ea0 01F4      		brne .L335
 4142               	.LBE1545:
 4143               	.LBE1544:
 4144               	.LBB1548:
 4145               	.LBB1549:
 4146               	.LM589:
 4147 0ea2 DD24      		clr r13
 4148 0ea4 D394      		inc r13
 4149 0ea6 D8B8      		out 40-32,r13
 4150               	.LM590:
 4151 0ea8 90E4      		ldi r25,lo8(64)
 4152 0eaa F92E      		mov r15,r25
 4153 0eac FBB8      		out 43-32,r15
 4154               	.LBB1550:
 4155               	.LBB1551:
 4156               	.LBB1552:
 4157               	.LBB1553:
 4158               	.LM591:
 4159 0eae 00ED      		ldi r16,lo8(2000)
 4160 0eb0 17E0      		ldi r17,hi8(2000)
 4161               	.LVL197:
 4162 0eb2 C801      		movw r24,r16
 4163               	.LVL198:
 4164               	/* #APP */
 4165               	 ;  105 "c:/winavr-20100110/lib/gcc/../../avr/include/util/delay_basic.h" 1
 4166 0eb4 0197      		1: sbiw r24,1
 4167 0eb6 01F4      		brne 1b
 4168               	 ;  0 "" 2
 4169               	/* #NOAPP */
 4170               	.LBE1553:
 4171               	.LBE1552:
 4172               	.LBE1551:
 4173               	.LBE1550:
 4174               	.LM592:
 4175 0eb8 1BB8      		out 43-32,__zero_reg__
 4176               	.LBE1549:
 4177               	.LBE1548:
 4178               	.LBB1554:
 4179               	.LBB1555:
 4180               	.LM593:
 4181 0eba 80E8      		ldi r24,lo8(-128)
 4182 0ebc E82E      		mov r14,r24
 4183               	.LVL199:
 4184 0ebe E8B8      		out 40-32,r14
 4185               	.LM594:
 4186 0ec0 FBB8      		out 43-32,r15
 4187               	.LBB1556:
 4188               	.LBB1557:
 4189               	.LBB1558:
 4190               	.LBB1559:
 4191               	.LM595:
 4192 0ec2 C801      		movw r24,r16
 4193               	.LVL200:
 4194               	/* #APP */
 4195               	 ;  105 "c:/winavr-20100110/lib/gcc/../../avr/include/util/delay_basic.h" 1
 4196 0ec4 0197      		1: sbiw r24,1
 4197 0ec6 01F4      		brne 1b
 4198               	 ;  0 "" 2
 4199               	/* #NOAPP */
 4200               	.LBE1559:
 4201               	.LBE1558:
 4202               	.LBE1557:
 4203               	.LBE1556:
 4204               	.LM596:
 4205 0ec8 1BB8      		out 43-32,__zero_reg__
 4206               	.LBE1555:
 4207               	.LBE1554:
 4208               	.LM597:
 4209 0eca 80E0      		ldi r24,lo8(.LC26)
 4210 0ecc 90E0      		ldi r25,hi8(.LC26)
 4211               	.LVL201:
 4212 0ece 0E94 0000 		call string
 4213               	.LVL202:
 4214               	.LM598:
 4215 0ed2 0E94 0000 		call searchfing
 4216               	.LBB1560:
 4217               	.LBB1561:
 4218               	.LM599:
 4219 0ed6 D8B8      		out 40-32,r13
 4220               	.LM600:
 4221 0ed8 FBB8      		out 43-32,r15
 4222               	.LBB1562:
 4223               	.LBB1563:
 4224               	.LBB1564:
 4225               	.LBB1565:
 4226               	.LM601:
 4227 0eda C801      		movw r24,r16
 4228               	.LVL203:
 4229               	/* #APP */
 4230               	 ;  105 "c:/winavr-20100110/lib/gcc/../../avr/include/util/delay_basic.h" 1
 4231 0edc 0197      		1: sbiw r24,1
 4232 0ede 01F4      		brne 1b
 4233               	 ;  0 "" 2
 4234               	/* #NOAPP */
 4235               	.LBE1565:
 4236               	.LBE1564:
 4237               	.LBE1563:
 4238               	.LBE1562:
 4239               	.LM602:
 4240 0ee0 1BB8      		out 43-32,__zero_reg__
 4241               	.LBE1561:
 4242               	.LBE1560:
 4243               	.LBB1566:
 4244               	.LBB1567:
 4245               	.LM603:
 4246 0ee2 E8B8      		out 40-32,r14
 4247               	.LM604:
 4248 0ee4 FBB8      		out 43-32,r15
 4249               	.LBB1568:
 4250               	.LBB1569:
 4251               	.LBB1570:
 4252               	.LBB1571:
 4253               	.LM605:
 4254 0ee6 C801      		movw r24,r16
 4255               	.LVL204:
 4256               	/* #APP */
 4257               	 ;  105 "c:/winavr-20100110/lib/gcc/../../avr/include/util/delay_basic.h" 1
 4258 0ee8 0197      		1: sbiw r24,1
 4259 0eea 01F4      		brne 1b
 4260               	 ;  0 "" 2
 4261               	/* #NOAPP */
 4262               	.LBE1571:
 4263               	.LBE1570:
 4264               	.LBE1569:
 4265               	.LBE1568:
 4266               	.LM606:
 4267 0eec 1BB8      		out 43-32,__zero_reg__
 4268               	.LBE1567:
 4269               	.LBE1566:
 4270               	.LM607:
 4271 0eee 8091 0000 		lds r24,ack+11
 4272               	.LVL205:
 4273 0ef2 64E6      		ldi r22,lo8(100)
 4274 0ef4 0E94 0000 		call __udivmodqi4
 4275 0ef8 292F      		mov r18,r25
 4276               	.LM608:
 4277 0efa 892F      		mov r24,r25
 4278 0efc 90E0      		ldi r25,lo8(0)
 4279 0efe 6AE0      		ldi r22,lo8(10)
 4280 0f00 70E0      		ldi r23,hi8(10)
 4281 0f02 0E94 0000 		call __udivmodhi4
 4282 0f06 8C01      		movw r16,r24
 4283               	.LVL206:
 4284 0f08 005D      		subi r16,lo8(-(48))
 4285 0f0a 1F4F      		sbci r17,hi8(-(48))
 4286               	.LM609:
 4287 0f0c 822F      		mov r24,r18
 4288 0f0e 90E0      		ldi r25,lo8(0)
 4289 0f10 6AE0      		ldi r22,lo8(10)
 4290 0f12 70E0      		ldi r23,hi8(10)
 4291 0f14 0E94 0000 		call __udivmodhi4
 4292 0f18 862F      		mov r24,r22
 4293 0f1a 805D      		subi r24,lo8(-(48))
 4294 0f1c 0E94 0000 		call data
 4295               	.LM610:
 4296 0f20 802F      		mov r24,r16
 4297 0f22 0E94 0000 		call data
 4298 0f26 88E8      		ldi r24,lo8(5000)
 4299 0f28 93E1      		ldi r25,hi8(5000)
 4300               	.LVL207:
 4301               	.L336:
 4302               	.LBB1572:
 4303               	.LBB1573:
 4304               	.LBB1574:
 4305               	.LBB1575:
 4306               	.LM611:
 4307 0f2a F401      		movw r30,r8
 4308               	.LVL208:
 4309               	/* #APP */
 4310               	 ;  105 "c:/winavr-20100110/lib/gcc/../../avr/include/util/delay_basic.h" 1
 4311 0f2c 3197      		1: sbiw r30,1
 4312 0f2e 01F4      		brne 1b
 4313               	 ;  0 "" 2
 4314               	/* #NOAPP */
 4315               	.LBE1575:
 4316               	.LBE1574:
 4317               	.LM612:
 4318 0f30 0197      		sbiw r24,1
 4319               	.LM613:
 4320 0f32 01F4      		brne .L336
 4321               	.LBE1573:
 4322               	.LBE1572:
 4323               	.LM614:
 4324 0f34 0133      		cpi r16,49
 4325 0f36 1105      		cpc r17,__zero_reg__
 4326 0f38 01F4      		brne .L337
 4327               	.LBB1576:
 4328               	.LBB1577:
 4329               	.LM615:
 4330 0f3a 81E0      		ldi r24,lo8(1)
 4331               	.LVL209:
 4332 0f3c 88B9      		out 40-32,r24
 4333               	.LM616:
 4334 0f3e 00E4      		ldi r16,lo8(64)
 4335 0f40 F02E      		mov r15,r16
 4336               	.LVL210:
 4337 0f42 FBB8      		out 43-32,r15
 4338               	.LBB1578:
 4339               	.LBB1579:
 4340               	.LBB1580:
 4341               	.LBB1581:
 4342               	.LM617:
 4343 0f44 00ED      		ldi r16,lo8(2000)
 4344 0f46 17E0      		ldi r17,hi8(2000)
 4345 0f48 C801      		movw r24,r16
 4346               	.LVL211:
 4347               	/* #APP */
 4348               	 ;  105 "c:/winavr-20100110/lib/gcc/../../avr/include/util/delay_basic.h" 1
 4349 0f4a 0197      		1: sbiw r24,1
 4350 0f4c 01F4      		brne 1b
 4351               	 ;  0 "" 2
 4352               	/* #NOAPP */
 4353               	.LBE1581:
 4354               	.LBE1580:
 4355               	.LBE1579:
 4356               	.LBE1578:
 4357               	.LM618:
 4358 0f4e 1BB8      		out 43-32,__zero_reg__
 4359               	.LBE1577:
 4360               	.LBE1576:
 4361               	.LBB1582:
 4362               	.LBB1583:
 4363               	.LM619:
 4364 0f50 80E8      		ldi r24,lo8(-128)
 4365               	.LVL212:
 4366 0f52 88B9      		out 40-32,r24
 4367               	.LM620:
 4368 0f54 FBB8      		out 43-32,r15
 4369               	.LBB1584:
 4370               	.LBB1585:
 4371               	.LBB1586:
 4372               	.LBB1587:
 4373               	.LM621:
 4374 0f56 C801      		movw r24,r16
 4375               	.LVL213:
 4376               	/* #APP */
 4377               	 ;  105 "c:/winavr-20100110/lib/gcc/../../avr/include/util/delay_basic.h" 1
 4378 0f58 0197      		1: sbiw r24,1
 4379 0f5a 01F4      		brne 1b
 4380               	 ;  0 "" 2
 4381               	/* #NOAPP */
 4382               	.LBE1587:
 4383               	.LBE1586:
 4384               	.LBE1585:
 4385               	.LBE1584:
 4386               	.LM622:
 4387 0f5c 1BB8      		out 43-32,__zero_reg__
 4388               	.LBE1583:
 4389               	.LBE1582:
 4390               	.LM623:
 4391 0f5e 80E0      		ldi r24,lo8(.LC27)
 4392 0f60 90E0      		ldi r25,hi8(.LC27)
 4393               	.LVL214:
 4394 0f62 0E94 0000 		call string
 4395               	.LVL215:
 4396               	.LBB1588:
 4397               	.LBB1589:
 4398               	.LM624:
 4399 0f66 80EC      		ldi r24,lo8(-64)
 4400 0f68 88B9      		out 40-32,r24
 4401               	.LM625:
 4402 0f6a FBB8      		out 43-32,r15
 4403               	.LBB1590:
 4404               	.LBB1591:
 4405               	.LBB1592:
 4406               	.LBB1593:
 4407               	.LM626:
 4408 0f6c C801      		movw r24,r16
 4409               	.LVL216:
 4410               	/* #APP */
 4411               	 ;  105 "c:/winavr-20100110/lib/gcc/../../avr/include/util/delay_basic.h" 1
 4412 0f6e 0197      		1: sbiw r24,1
 4413 0f70 01F4      		brne 1b
 4414               	 ;  0 "" 2
 4415               	/* #NOAPP */
 4416               	.LBE1593:
 4417               	.LBE1592:
 4418               	.LBE1591:
 4419               	.LBE1590:
 4420               	.LM627:
 4421 0f72 1BB8      		out 43-32,__zero_reg__
 4422               	.LBE1589:
 4423               	.LBE1588:
 4424               	.LM628:
 4425 0f74 80E0      		ldi r24,lo8(.LC28)
 4426 0f76 90E0      		ldi r25,hi8(.LC28)
 4427               	.LVL217:
 4428 0f78 0E94 0000 		call string
 4429 0f7c 80E3      		ldi r24,lo8(30000)
 4430 0f7e 95E7      		ldi r25,hi8(30000)
 4431               	.LVL218:
 4432               	.L338:
 4433               	.LBB1594:
 4434               	.LBB1595:
 4435               	.LBB1596:
 4436               	.LBB1597:
 4437               	.LM629:
 4438 0f80 F401      		movw r30,r8
 4439               	.LVL219:
 4440               	/* #APP */
 4441               	 ;  105 "c:/winavr-20100110/lib/gcc/../../avr/include/util/delay_basic.h" 1
 4442 0f82 3197      		1: sbiw r30,1
 4443 0f84 01F4      		brne 1b
 4444               	 ;  0 "" 2
 4445               	/* #NOAPP */
 4446               	.LBE1597:
 4447               	.LBE1596:
 4448               	.LM630:
 4449 0f86 0197      		sbiw r24,1
 4450               	.LM631:
 4451 0f88 01F4      		brne .L338
 4452 0f8a 00C0      		rjmp .L339
 4453               	.LVL220:
 4454               	.L337:
 4455               	.LBE1595:
 4456               	.LBE1594:
 4457               	.LM632:
 4458 0f8c 0233      		cpi r16,50
 4459 0f8e 1105      		cpc r17,__zero_reg__
 4460 0f90 01F4      		brne .L340
 4461               	.LBB1598:
 4462               	.LBB1599:
 4463               	.LM633:
 4464 0f92 81E0      		ldi r24,lo8(1)
 4465               	.LVL221:
 4466 0f94 88B9      		out 40-32,r24
 4467               	.LM634:
 4468 0f96 10E4      		ldi r17,lo8(64)
 4469 0f98 F12E      		mov r15,r17
 4470 0f9a FBB8      		out 43-32,r15
 4471               	.LBB1600:
 4472               	.LBB1601:
 4473               	.LBB1602:
 4474               	.LBB1603:
 4475               	.LM635:
 4476 0f9c 00ED      		ldi r16,lo8(2000)
 4477 0f9e 17E0      		ldi r17,hi8(2000)
 4478               	.LVL222:
 4479 0fa0 C801      		movw r24,r16
 4480               	.LVL223:
 4481               	/* #APP */
 4482               	 ;  105 "c:/winavr-20100110/lib/gcc/../../avr/include/util/delay_basic.h" 1
 4483 0fa2 0197      		1: sbiw r24,1
 4484 0fa4 01F4      		brne 1b
 4485               	 ;  0 "" 2
 4486               	/* #NOAPP */
 4487               	.LBE1603:
 4488               	.LBE1602:
 4489               	.LBE1601:
 4490               	.LBE1600:
 4491               	.LM636:
 4492 0fa6 1BB8      		out 43-32,__zero_reg__
 4493               	.LBE1599:
 4494               	.LBE1598:
 4495               	.LBB1604:
 4496               	.LBB1605:
 4497               	.LM637:
 4498 0fa8 80E8      		ldi r24,lo8(-128)
 4499               	.LVL224:
 4500 0faa 88B9      		out 40-32,r24
 4501               	.LM638:
 4502 0fac FBB8      		out 43-32,r15
 4503               	.LBB1606:
 4504               	.LBB1607:
 4505               	.LBB1608:
 4506               	.LBB1609:
 4507               	.LM639:
 4508 0fae C801      		movw r24,r16
 4509               	.LVL225:
 4510               	/* #APP */
 4511               	 ;  105 "c:/winavr-20100110/lib/gcc/../../avr/include/util/delay_basic.h" 1
 4512 0fb0 0197      		1: sbiw r24,1
 4513 0fb2 01F4      		brne 1b
 4514               	 ;  0 "" 2
 4515               	/* #NOAPP */
 4516               	.LBE1609:
 4517               	.LBE1608:
 4518               	.LBE1607:
 4519               	.LBE1606:
 4520               	.LM640:
 4521 0fb4 1BB8      		out 43-32,__zero_reg__
 4522               	.LBE1605:
 4523               	.LBE1604:
 4524               	.LM641:
 4525 0fb6 80E0      		ldi r24,lo8(.LC27)
 4526 0fb8 90E0      		ldi r25,hi8(.LC27)
 4527               	.LVL226:
 4528 0fba 0E94 0000 		call string
 4529               	.LVL227:
 4530               	.LBB1610:
 4531               	.LBB1611:
 4532               	.LM642:
 4533 0fbe 80EC      		ldi r24,lo8(-64)
 4534 0fc0 88B9      		out 40-32,r24
 4535               	.LM643:
 4536 0fc2 FBB8      		out 43-32,r15
 4537               	.LBB1612:
 4538               	.LBB1613:
 4539               	.LBB1614:
 4540               	.LBB1615:
 4541               	.LM644:
 4542 0fc4 C801      		movw r24,r16
 4543               	.LVL228:
 4544               	/* #APP */
 4545               	 ;  105 "c:/winavr-20100110/lib/gcc/../../avr/include/util/delay_basic.h" 1
 4546 0fc6 0197      		1: sbiw r24,1
 4547 0fc8 01F4      		brne 1b
 4548               	 ;  0 "" 2
 4549               	/* #NOAPP */
 4550               	.LBE1615:
 4551               	.LBE1614:
 4552               	.LBE1613:
 4553               	.LBE1612:
 4554               	.LM645:
 4555 0fca 1BB8      		out 43-32,__zero_reg__
 4556               	.LBE1611:
 4557               	.LBE1610:
 4558               	.LM646:
 4559 0fcc 80E0      		ldi r24,lo8(.LC29)
 4560 0fce 90E0      		ldi r25,hi8(.LC29)
 4561               	.LVL229:
 4562 0fd0 0E94 0000 		call string
 4563 0fd4 80E3      		ldi r24,lo8(30000)
 4564 0fd6 95E7      		ldi r25,hi8(30000)
 4565               	.LVL230:
 4566               	.L341:
 4567               	.LBB1616:
 4568               	.LBB1617:
 4569               	.LBB1618:
 4570               	.LBB1619:
 4571               	.LM647:
 4572 0fd8 F401      		movw r30,r8
 4573               	.LVL231:
 4574               	/* #APP */
 4575               	 ;  105 "c:/winavr-20100110/lib/gcc/../../avr/include/util/delay_basic.h" 1
 4576 0fda 3197      		1: sbiw r30,1
 4577 0fdc 01F4      		brne 1b
 4578               	 ;  0 "" 2
 4579               	/* #NOAPP */
 4580               	.LBE1619:
 4581               	.LBE1618:
 4582               	.LM648:
 4583 0fde 0197      		sbiw r24,1
 4584               	.LM649:
 4585 0fe0 01F4      		brne .L341
 4586 0fe2 00C0      		rjmp .L339
 4587               	.LVL232:
 4588               	.L340:
 4589               	.LBE1617:
 4590               	.LBE1616:
 4591               	.LM650:
 4592 0fe4 0333      		cpi r16,51
 4593 0fe6 1105      		cpc r17,__zero_reg__
 4594 0fe8 01F4      		brne .L342
 4595               	.LBB1620:
 4596               	.LBB1621:
 4597               	.LM651:
 4598 0fea 81E0      		ldi r24,lo8(1)
 4599               	.LVL233:
 4600 0fec 88B9      		out 40-32,r24
 4601               	.LM652:
 4602 0fee B0E4      		ldi r27,lo8(64)
 4603 0ff0 FB2E      		mov r15,r27
 4604 0ff2 FBB8      		out 43-32,r15
 4605               	.LBB1622:
 4606               	.LBB1623:
 4607               	.LBB1624:
 4608               	.LBB1625:
 4609               	.LM653:
 4610 0ff4 00ED      		ldi r16,lo8(2000)
 4611 0ff6 17E0      		ldi r17,hi8(2000)
 4612               	.LVL234:
 4613 0ff8 C801      		movw r24,r16
 4614               	.LVL235:
 4615               	/* #APP */
 4616               	 ;  105 "c:/winavr-20100110/lib/gcc/../../avr/include/util/delay_basic.h" 1
 4617 0ffa 0197      		1: sbiw r24,1
 4618 0ffc 01F4      		brne 1b
 4619               	 ;  0 "" 2
 4620               	/* #NOAPP */
 4621               	.LBE1625:
 4622               	.LBE1624:
 4623               	.LBE1623:
 4624               	.LBE1622:
 4625               	.LM654:
 4626 0ffe 1BB8      		out 43-32,__zero_reg__
 4627               	.LBE1621:
 4628               	.LBE1620:
 4629               	.LBB1626:
 4630               	.LBB1627:
 4631               	.LM655:
 4632 1000 80E8      		ldi r24,lo8(-128)
 4633               	.LVL236:
 4634 1002 88B9      		out 40-32,r24
 4635               	.LM656:
 4636 1004 FBB8      		out 43-32,r15
 4637               	.LBB1628:
 4638               	.LBB1629:
 4639               	.LBB1630:
 4640               	.LBB1631:
 4641               	.LM657:
 4642 1006 C801      		movw r24,r16
 4643               	.LVL237:
 4644               	/* #APP */
 4645               	 ;  105 "c:/winavr-20100110/lib/gcc/../../avr/include/util/delay_basic.h" 1
 4646 1008 0197      		1: sbiw r24,1
 4647 100a 01F4      		brne 1b
 4648               	 ;  0 "" 2
 4649               	/* #NOAPP */
 4650               	.LBE1631:
 4651               	.LBE1630:
 4652               	.LBE1629:
 4653               	.LBE1628:
 4654               	.LM658:
 4655 100c 1BB8      		out 43-32,__zero_reg__
 4656               	.LBE1627:
 4657               	.LBE1626:
 4658               	.LM659:
 4659 100e 80E0      		ldi r24,lo8(.LC27)
 4660 1010 90E0      		ldi r25,hi8(.LC27)
 4661               	.LVL238:
 4662 1012 0E94 0000 		call string
 4663               	.LVL239:
 4664               	.LBB1632:
 4665               	.LBB1633:
 4666               	.LM660:
 4667 1016 80EC      		ldi r24,lo8(-64)
 4668 1018 88B9      		out 40-32,r24
 4669               	.LM661:
 4670 101a FBB8      		out 43-32,r15
 4671               	.LBB1634:
 4672               	.LBB1635:
 4673               	.LBB1636:
 4674               	.LBB1637:
 4675               	.LM662:
 4676 101c C801      		movw r24,r16
 4677               	.LVL240:
 4678               	/* #APP */
 4679               	 ;  105 "c:/winavr-20100110/lib/gcc/../../avr/include/util/delay_basic.h" 1
 4680 101e 0197      		1: sbiw r24,1
 4681 1020 01F4      		brne 1b
 4682               	 ;  0 "" 2
 4683               	/* #NOAPP */
 4684               	.LBE1637:
 4685               	.LBE1636:
 4686               	.LBE1635:
 4687               	.LBE1634:
 4688               	.LM663:
 4689 1022 1BB8      		out 43-32,__zero_reg__
 4690               	.LBE1633:
 4691               	.LBE1632:
 4692               	.LM664:
 4693 1024 80E0      		ldi r24,lo8(.LC30)
 4694 1026 90E0      		ldi r25,hi8(.LC30)
 4695               	.LVL241:
 4696 1028 0E94 0000 		call string
 4697 102c 80E3      		ldi r24,lo8(30000)
 4698 102e 95E7      		ldi r25,hi8(30000)
 4699               	.LVL242:
 4700               	.L343:
 4701               	.LBB1638:
 4702               	.LBB1639:
 4703               	.LBB1640:
 4704               	.LBB1641:
 4705               	.LM665:
 4706 1030 F401      		movw r30,r8
 4707               	.LVL243:
 4708               	/* #APP */
 4709               	 ;  105 "c:/winavr-20100110/lib/gcc/../../avr/include/util/delay_basic.h" 1
 4710 1032 3197      		1: sbiw r30,1
 4711 1034 01F4      		brne 1b
 4712               	 ;  0 "" 2
 4713               	/* #NOAPP */
 4714               	.LBE1641:
 4715               	.LBE1640:
 4716               	.LM666:
 4717 1036 0197      		sbiw r24,1
 4718               	.LM667:
 4719 1038 01F4      		brne .L343
 4720 103a 00C0      		rjmp .L339
 4721               	.LVL244:
 4722               	.L342:
 4723               	.LBE1639:
 4724               	.LBE1638:
 4725               	.LBB1642:
 4726               	.LBB1643:
 4727               	.LM668:
 4728 103c 81E0      		ldi r24,lo8(1)
 4729               	.LVL245:
 4730 103e 88B9      		out 40-32,r24
 4731               	.LM669:
 4732 1040 A0E4      		ldi r26,lo8(64)
 4733 1042 FA2E      		mov r15,r26
 4734 1044 FBB8      		out 43-32,r15
 4735               	.LBB1644:
 4736               	.LBB1645:
 4737               	.LBB1646:
 4738               	.LBB1647:
 4739               	.LM670:
 4740 1046 00ED      		ldi r16,lo8(2000)
 4741 1048 17E0      		ldi r17,hi8(2000)
 4742               	.LVL246:
 4743 104a C801      		movw r24,r16
 4744               	.LVL247:
 4745               	/* #APP */
 4746               	 ;  105 "c:/winavr-20100110/lib/gcc/../../avr/include/util/delay_basic.h" 1
 4747 104c 0197      		1: sbiw r24,1
 4748 104e 01F4      		brne 1b
 4749               	 ;  0 "" 2
 4750               	/* #NOAPP */
 4751               	.LBE1647:
 4752               	.LBE1646:
 4753               	.LBE1645:
 4754               	.LBE1644:
 4755               	.LM671:
 4756 1050 1BB8      		out 43-32,__zero_reg__
 4757               	.LBE1643:
 4758               	.LBE1642:
 4759               	.LBB1648:
 4760               	.LBB1649:
 4761               	.LM672:
 4762 1052 80E8      		ldi r24,lo8(-128)
 4763               	.LVL248:
 4764 1054 88B9      		out 40-32,r24
 4765               	.LM673:
 4766 1056 FBB8      		out 43-32,r15
 4767               	.LBB1650:
 4768               	.LBB1651:
 4769               	.LBB1652:
 4770               	.LBB1653:
 4771               	.LM674:
 4772 1058 C801      		movw r24,r16
 4773               	.LVL249:
 4774               	/* #APP */
 4775               	 ;  105 "c:/winavr-20100110/lib/gcc/../../avr/include/util/delay_basic.h" 1
 4776 105a 0197      		1: sbiw r24,1
 4777 105c 01F4      		brne 1b
 4778               	 ;  0 "" 2
 4779               	/* #NOAPP */
 4780               	.LBE1653:
 4781               	.LBE1652:
 4782               	.LBE1651:
 4783               	.LBE1650:
 4784               	.LM675:
 4785 105e 1BB8      		out 43-32,__zero_reg__
 4786               	.LBE1649:
 4787               	.LBE1648:
 4788               	.LM676:
 4789 1060 80E0      		ldi r24,lo8(.LC31)
 4790 1062 90E0      		ldi r25,hi8(.LC31)
 4791               	.LVL250:
 4792 1064 0E94 0000 		call string
 4793               	.LVL251:
 4794               	.LBB1654:
 4795               	.LBB1655:
 4796               	.LM677:
 4797 1068 80EC      		ldi r24,lo8(-64)
 4798 106a 88B9      		out 40-32,r24
 4799               	.LM678:
 4800 106c FBB8      		out 43-32,r15
 4801               	.LBB1656:
 4802               	.LBB1657:
 4803               	.LBB1658:
 4804               	.LBB1659:
 4805               	.LM679:
 4806 106e C801      		movw r24,r16
 4807               	.LVL252:
 4808               	/* #APP */
 4809               	 ;  105 "c:/winavr-20100110/lib/gcc/../../avr/include/util/delay_basic.h" 1
 4810 1070 0197      		1: sbiw r24,1
 4811 1072 01F4      		brne 1b
 4812               	 ;  0 "" 2
 4813               	/* #NOAPP */
 4814               	.LBE1659:
 4815               	.LBE1658:
 4816               	.LBE1657:
 4817               	.LBE1656:
 4818               	.LM680:
 4819 1074 1BB8      		out 43-32,__zero_reg__
 4820               	.LBE1655:
 4821               	.LBE1654:
 4822               	.LM681:
 4823 1076 80E0      		ldi r24,lo8(.LC32)
 4824 1078 90E0      		ldi r25,hi8(.LC32)
 4825               	.LVL253:
 4826 107a 0E94 0000 		call string
 4827 107e 80E2      		ldi r24,lo8(20000)
 4828 1080 9EE4      		ldi r25,hi8(20000)
 4829               	.LVL254:
 4830               	.L344:
 4831               	.LBB1660:
 4832               	.LBB1661:
 4833               	.LBB1662:
 4834               	.LBB1663:
 4835               	.LM682:
 4836 1082 F401      		movw r30,r8
 4837               	.LVL255:
 4838               	/* #APP */
 4839               	 ;  105 "c:/winavr-20100110/lib/gcc/../../avr/include/util/delay_basic.h" 1
 4840 1084 3197      		1: sbiw r30,1
 4841 1086 01F4      		brne 1b
 4842               	 ;  0 "" 2
 4843               	/* #NOAPP */
 4844               	.LBE1663:
 4845               	.LBE1662:
 4846               	.LM683:
 4847 1088 0197      		sbiw r24,1
 4848               	.LM684:
 4849 108a 01F4      		brne .L344
 4850 108c 00C0      		rjmp .L397
 4851               	.LVL256:
 4852               	.L326:
 4853               	.LBE1661:
 4854               	.LBE1660:
 4855               	.LM685:
 4856 108e 81E0      		ldi r24,lo8(1)
 4857 1090 6816      		cp r6,r24
 4858 1092 7104      		cpc r7,__zero_reg__
 4859               	.LVL257:
 4860 1094 01F0      		breq .+2
 4861 1096 00C0      		rjmp .L397
 4862               	.LBB1664:
 4863               	.LBB1665:
 4864               	.LM686:
 4865 1098 81E0      		ldi r24,lo8(1)
 4866 109a 88B9      		out 40-32,r24
 4867               	.LM687:
 4868 109c F0E4      		ldi r31,lo8(64)
 4869 109e FF2E      		mov r15,r31
 4870 10a0 FBB8      		out 43-32,r15
 4871               	.LBB1666:
 4872               	.LBB1667:
 4873               	.LBB1668:
 4874               	.LBB1669:
 4875               	.LM688:
 4876 10a2 00ED      		ldi r16,lo8(2000)
 4877 10a4 17E0      		ldi r17,hi8(2000)
 4878 10a6 C801      		movw r24,r16
 4879               	.LVL258:
 4880               	/* #APP */
 4881               	 ;  105 "c:/winavr-20100110/lib/gcc/../../avr/include/util/delay_basic.h" 1
 4882 10a8 0197      		1: sbiw r24,1
 4883 10aa 01F4      		brne 1b
 4884               	 ;  0 "" 2
 4885               	/* #NOAPP */
 4886               	.LBE1669:
 4887               	.LBE1668:
 4888               	.LBE1667:
 4889               	.LBE1666:
 4890               	.LM689:
 4891 10ac 1BB8      		out 43-32,__zero_reg__
 4892               	.LBE1665:
 4893               	.LBE1664:
 4894               	.LBB1670:
 4895               	.LBB1671:
 4896               	.LM690:
 4897 10ae 80E8      		ldi r24,lo8(-128)
 4898               	.LVL259:
 4899 10b0 88B9      		out 40-32,r24
 4900               	.LM691:
 4901 10b2 FBB8      		out 43-32,r15
 4902               	.LBB1672:
 4903               	.LBB1673:
 4904               	.LBB1674:
 4905               	.LBB1675:
 4906               	.LM692:
 4907 10b4 C801      		movw r24,r16
 4908               	.LVL260:
 4909               	/* #APP */
 4910               	 ;  105 "c:/winavr-20100110/lib/gcc/../../avr/include/util/delay_basic.h" 1
 4911 10b6 0197      		1: sbiw r24,1
 4912 10b8 01F4      		brne 1b
 4913               	 ;  0 "" 2
 4914               	/* #NOAPP */
 4915               	.LBE1675:
 4916               	.LBE1674:
 4917               	.LBE1673:
 4918               	.LBE1672:
 4919               	.LM693:
 4920 10ba 1BB8      		out 43-32,__zero_reg__
 4921               	.LBE1671:
 4922               	.LBE1670:
 4923               	.LM694:
 4924 10bc 80E0      		ldi r24,lo8(.LC33)
 4925 10be 90E0      		ldi r25,hi8(.LC33)
 4926               	.LVL261:
 4927 10c0 0E94 0000 		call string
 4928               	.LVL262:
 4929               	.LBB1676:
 4930               	.LBB1677:
 4931               	.LM695:
 4932 10c4 80EC      		ldi r24,lo8(-64)
 4933 10c6 88B9      		out 40-32,r24
 4934               	.LM696:
 4935 10c8 FBB8      		out 43-32,r15
 4936               	.LBB1678:
 4937               	.LBB1679:
 4938               	.LBB1680:
 4939               	.LBB1681:
 4940               	.LM697:
 4941 10ca C801      		movw r24,r16
 4942               	.LVL263:
 4943               	/* #APP */
 4944               	 ;  105 "c:/winavr-20100110/lib/gcc/../../avr/include/util/delay_basic.h" 1
 4945 10cc 0197      		1: sbiw r24,1
 4946 10ce 01F4      		brne 1b
 4947               	 ;  0 "" 2
 4948               	/* #NOAPP */
 4949               	.LBE1681:
 4950               	.LBE1680:
 4951               	.LBE1679:
 4952               	.LBE1678:
 4953               	.LM698:
 4954 10d0 1BB8      		out 43-32,__zero_reg__
 4955               	.LBE1677:
 4956               	.LBE1676:
 4957               	.LM699:
 4958 10d2 80E0      		ldi r24,lo8(.LC34)
 4959 10d4 90E0      		ldi r25,hi8(.LC34)
 4960               	.LVL264:
 4961 10d6 0E94 0000 		call string
 4962 10da 8FEF      		ldi r24,lo8(-1)
 4963 10dc 9FEF      		ldi r25,hi8(-1)
 4964               	.LVL265:
 4965               	.L346:
 4966               	.LBB1682:
 4967               	.LBB1361:
 4968               	.LBB1360:
 4969               	.LBB1359:
 4970               	.LM700:
 4971 10de F401      		movw r30,r8
 4972               	.LVL266:
 4973               	/* #APP */
 4974               	 ;  105 "c:/winavr-20100110/lib/gcc/../../avr/include/util/delay_basic.h" 1
 4975 10e0 3197      		1: sbiw r30,1
 4976 10e2 01F4      		brne 1b
 4977               	 ;  0 "" 2
 4978               	/* #NOAPP */
 4979               	.LBE1359:
 4980               	.LBE1360:
 4981               	.LM701:
 4982 10e4 0197      		sbiw r24,1
 4983               	.LM702:
 4984 10e6 01F4      		brne .L346
 4985               	.L362:
 4986               	.LBE1361:
 4987               	.LBE1682:
 4988               	.LM703:
 4989 10e8 8091 0000 		lds r24,dk
 4990 10ec 9091 0000 		lds r25,(dk)+1
 4991               	.LVL267:
 4992 10f0 892B      		or r24,r25
 4993 10f2 01F0      		breq .L362
 4994               	.LM704:
 4995 10f4 8091 0000 		lds r24,dk
 4996 10f8 9091 0000 		lds r25,(dk)+1
 4997 10fc C197      		sbiw r24,49
 4998 10fe 01F0      		breq .+2
 4999 1100 00C0      		rjmp .L348
 5000               	.LBB1683:
 5001               	.LBB1684:
 5002               	.LM705:
 5003 1102 81E0      		ldi r24,lo8(1)
 5004 1104 88B9      		out 40-32,r24
 5005               	.LM706:
 5006 1106 E0E4      		ldi r30,lo8(64)
 5007 1108 FE2E      		mov r15,r30
 5008               	.LVL268:
 5009 110a FBB8      		out 43-32,r15
 5010               	.LBB1685:
 5011               	.LBB1686:
 5012               	.LBB1687:
 5013               	.LBB1688:
 5014               	.LM707:
 5015 110c 00ED      		ldi r16,lo8(2000)
 5016 110e 17E0      		ldi r17,hi8(2000)
 5017 1110 C801      		movw r24,r16
 5018               	.LVL269:
 5019               	/* #APP */
 5020               	 ;  105 "c:/winavr-20100110/lib/gcc/../../avr/include/util/delay_basic.h" 1
 5021 1112 0197      		1: sbiw r24,1
 5022 1114 01F4      		brne 1b
 5023               	 ;  0 "" 2
 5024               	/* #NOAPP */
 5025               	.LBE1688:
 5026               	.LBE1687:
 5027               	.LBE1686:
 5028               	.LBE1685:
 5029               	.LM708:
 5030 1116 1BB8      		out 43-32,__zero_reg__
 5031               	.LBE1684:
 5032               	.LBE1683:
 5033               	.LBB1689:
 5034               	.LBB1690:
 5035               	.LM709:
 5036 1118 80E8      		ldi r24,lo8(-128)
 5037               	.LVL270:
 5038 111a 88B9      		out 40-32,r24
 5039               	.LM710:
 5040 111c FBB8      		out 43-32,r15
 5041               	.LBB1691:
 5042               	.LBB1692:
 5043               	.LBB1693:
 5044               	.LBB1694:
 5045               	.LM711:
 5046 111e C801      		movw r24,r16
 5047               	.LVL271:
 5048               	/* #APP */
 5049               	 ;  105 "c:/winavr-20100110/lib/gcc/../../avr/include/util/delay_basic.h" 1
 5050 1120 0197      		1: sbiw r24,1
 5051 1122 01F4      		brne 1b
 5052               	 ;  0 "" 2
 5053               	/* #NOAPP */
 5054               	.LBE1694:
 5055               	.LBE1693:
 5056               	.LBE1692:
 5057               	.LBE1691:
 5058               	.LM712:
 5059 1124 1BB8      		out 43-32,__zero_reg__
 5060               	.LBE1690:
 5061               	.LBE1689:
 5062               	.LM713:
 5063 1126 80E0      		ldi r24,lo8(.LC35)
 5064 1128 90E0      		ldi r25,hi8(.LC35)
 5065               	.LVL272:
 5066 112a 0E94 0000 		call string
 5067               	.LBB1695:
 5068               	.LBB1696:
 5069               	.LM714:
 5070 112e 80EC      		ldi r24,lo8(-64)
 5071 1130 88B9      		out 40-32,r24
 5072               	.LM715:
 5073 1132 FBB8      		out 43-32,r15
 5074               	.LBB1697:
 5075               	.LBB1698:
 5076               	.LBB1699:
 5077               	.LBB1700:
 5078               	.LM716:
 5079 1134 C801      		movw r24,r16
 5080               	.LVL273:
 5081               	/* #APP */
 5082               	 ;  105 "c:/winavr-20100110/lib/gcc/../../avr/include/util/delay_basic.h" 1
 5083 1136 0197      		1: sbiw r24,1
 5084 1138 01F4      		brne 1b
 5085               	 ;  0 "" 2
 5086               	/* #NOAPP */
 5087               	.LBE1700:
 5088               	.LBE1699:
 5089               	.LBE1698:
 5090               	.LBE1697:
 5091               	.LM717:
 5092 113a 1BB8      		out 43-32,__zero_reg__
 5093               	.LBE1696:
 5094               	.LBE1695:
 5095               	.LM718:
 5096 113c 80E0      		ldi r24,lo8(.LC36)
 5097 113e 90E0      		ldi r25,hi8(.LC36)
 5098               	.LVL274:
 5099 1140 0E94 0000 		call string
 5100 1144 80E2      		ldi r24,lo8(20000)
 5101 1146 9EE4      		ldi r25,hi8(20000)
 5102               	.LVL275:
 5103               	.LBB1701:
 5104               	.LBB1702:
 5105               	.LBB1703:
 5106               	.LBB1704:
 5107               	.LM719:
 5108 1148 28EC      		ldi r18,lo8(200)
 5109 114a 30E0      		ldi r19,hi8(200)
 5110               	.L349:
 5111 114c F901      		movw r30,r18
 5112               	.LVL276:
 5113               	/* #APP */
 5114               	 ;  105 "c:/winavr-20100110/lib/gcc/../../avr/include/util/delay_basic.h" 1
 5115 114e 3197      		1: sbiw r30,1
 5116 1150 01F4      		brne 1b
 5117               	 ;  0 "" 2
 5118               	/* #NOAPP */
 5119               	.LBE1704:
 5120               	.LBE1703:
 5121               	.LM720:
 5122 1152 0197      		sbiw r24,1
 5123               	.LM721:
 5124 1154 01F4      		brne .L349
 5125               	.LBE1702:
 5126               	.LBE1701:
 5127               	.LBB1705:
 5128               	.LBB1706:
 5129               	.LM722:
 5130 1156 81E0      		ldi r24,lo8(1)
 5131               	.LVL277:
 5132 1158 88B9      		out 40-32,r24
 5133               	.LM723:
 5134 115a 70E4      		ldi r23,lo8(64)
 5135 115c F72E      		mov r15,r23
 5136 115e FBB8      		out 43-32,r15
 5137               	.LBB1707:
 5138               	.LBB1708:
 5139               	.LBB1709:
 5140               	.LBB1710:
 5141               	.LM724:
 5142 1160 00ED      		ldi r16,lo8(2000)
 5143 1162 17E0      		ldi r17,hi8(2000)
 5144 1164 C801      		movw r24,r16
 5145               	.LVL278:
 5146               	/* #APP */
 5147               	 ;  105 "c:/winavr-20100110/lib/gcc/../../avr/include/util/delay_basic.h" 1
 5148 1166 0197      		1: sbiw r24,1
 5149 1168 01F4      		brne 1b
 5150               	 ;  0 "" 2
 5151               	/* #NOAPP */
 5152               	.LBE1710:
 5153               	.LBE1709:
 5154               	.LBE1708:
 5155               	.LBE1707:
 5156               	.LM725:
 5157 116a 1BB8      		out 43-32,__zero_reg__
 5158               	.LBE1706:
 5159               	.LBE1705:
 5160               	.LBB1711:
 5161               	.LBB1712:
 5162               	.LM726:
 5163 116c 80E8      		ldi r24,lo8(-128)
 5164               	.LVL279:
 5165 116e 88B9      		out 40-32,r24
 5166               	.LM727:
 5167 1170 FBB8      		out 43-32,r15
 5168               	.LBB1713:
 5169               	.LBB1714:
 5170               	.LBB1715:
 5171               	.LBB1716:
 5172               	.LM728:
 5173 1172 C801      		movw r24,r16
 5174               	.LVL280:
 5175               	/* #APP */
 5176               	 ;  105 "c:/winavr-20100110/lib/gcc/../../avr/include/util/delay_basic.h" 1
 5177 1174 0197      		1: sbiw r24,1
 5178 1176 01F4      		brne 1b
 5179               	 ;  0 "" 2
 5180               	/* #NOAPP */
 5181               	.LBE1716:
 5182               	.LBE1715:
 5183               	.LBE1714:
 5184               	.LBE1713:
 5185               	.LM729:
 5186 1178 1BB8      		out 43-32,__zero_reg__
 5187               	.LBE1712:
 5188               	.LBE1711:
 5189               	.LM730:
 5190 117a 80E0      		ldi r24,lo8(.LC37)
 5191 117c 90E0      		ldi r25,hi8(.LC37)
 5192               	.LVL281:
 5193 117e 0E94 0000 		call string
 5194               	.LVL282:
 5195               	.LBB1717:
 5196               	.LBB1718:
 5197               	.LM731:
 5198 1182 80EC      		ldi r24,lo8(-64)
 5199 1184 88B9      		out 40-32,r24
 5200               	.LM732:
 5201 1186 FBB8      		out 43-32,r15
 5202               	.LBB1719:
 5203               	.LBB1720:
 5204               	.LBB1721:
 5205               	.LBB1722:
 5206               	.LM733:
 5207 1188 C801      		movw r24,r16
 5208               	.LVL283:
 5209               	/* #APP */
 5210               	 ;  105 "c:/winavr-20100110/lib/gcc/../../avr/include/util/delay_basic.h" 1
 5211 118a 0197      		1: sbiw r24,1
 5212 118c 01F4      		brne 1b
 5213               	 ;  0 "" 2
 5214               	/* #NOAPP */
 5215               	.LBE1722:
 5216               	.LBE1721:
 5217               	.LBE1720:
 5218               	.LBE1719:
 5219               	.LM734:
 5220 118e 1BB8      		out 43-32,__zero_reg__
 5221               	.LBE1718:
 5222               	.LBE1717:
 5223               	.LM735:
 5224 1190 80E0      		ldi r24,lo8(.LC38)
 5225 1192 90E0      		ldi r25,hi8(.LC38)
 5226               	.LVL284:
 5227 1194 0E94 0000 		call string
 5228 1198 80E2      		ldi r24,lo8(20000)
 5229 119a 9EE4      		ldi r25,hi8(20000)
 5230               	.LVL285:
 5231               	.LBB1723:
 5232               	.LBB1724:
 5233               	.LBB1725:
 5234               	.LBB1726:
 5235               	.LM736:
 5236 119c 28EC      		ldi r18,lo8(200)
 5237 119e 30E0      		ldi r19,hi8(200)
 5238               	.L350:
 5239 11a0 F901      		movw r30,r18
 5240               	.LVL286:
 5241               	/* #APP */
 5242               	 ;  105 "c:/winavr-20100110/lib/gcc/../../avr/include/util/delay_basic.h" 1
 5243 11a2 3197      		1: sbiw r30,1
 5244 11a4 01F4      		brne 1b
 5245               	 ;  0 "" 2
 5246               	/* #NOAPP */
 5247               	.LBE1726:
 5248               	.LBE1725:
 5249               	.LM737:
 5250 11a6 0197      		sbiw r24,1
 5251               	.LM738:
 5252 11a8 01F4      		brne .L350
 5253 11aa 00C0      		rjmp .L395
 5254               	.LVL287:
 5255               	.L348:
 5256               	.LBE1724:
 5257               	.LBE1723:
 5258               	.LM739:
 5259 11ac 8091 0000 		lds r24,dk
 5260 11b0 9091 0000 		lds r25,(dk)+1
 5261 11b4 C297      		sbiw r24,50
 5262 11b6 01F0      		breq .+2
 5263 11b8 00C0      		rjmp .L351
 5264               	.LBB1727:
 5265               	.LBB1728:
 5266               	.LM740:
 5267 11ba 81E0      		ldi r24,lo8(1)
 5268 11bc 88B9      		out 40-32,r24
 5269               	.LM741:
 5270 11be 60E4      		ldi r22,lo8(64)
 5271 11c0 F62E      		mov r15,r22
 5272 11c2 FBB8      		out 43-32,r15
 5273               	.LBB1729:
 5274               	.LBB1730:
 5275               	.LBB1731:
 5276               	.LBB1732:
 5277               	.LM742:
 5278 11c4 00ED      		ldi r16,lo8(2000)
 5279 11c6 17E0      		ldi r17,hi8(2000)
 5280 11c8 C801      		movw r24,r16
 5281               	.LVL288:
 5282               	/* #APP */
 5283               	 ;  105 "c:/winavr-20100110/lib/gcc/../../avr/include/util/delay_basic.h" 1
 5284 11ca 0197      		1: sbiw r24,1
 5285 11cc 01F4      		brne 1b
 5286               	 ;  0 "" 2
 5287               	/* #NOAPP */
 5288               	.LBE1732:
 5289               	.LBE1731:
 5290               	.LBE1730:
 5291               	.LBE1729:
 5292               	.LM743:
 5293 11ce 1BB8      		out 43-32,__zero_reg__
 5294               	.LBE1728:
 5295               	.LBE1727:
 5296               	.LBB1733:
 5297               	.LBB1734:
 5298               	.LM744:
 5299 11d0 80E8      		ldi r24,lo8(-128)
 5300               	.LVL289:
 5301 11d2 88B9      		out 40-32,r24
 5302               	.LM745:
 5303 11d4 FBB8      		out 43-32,r15
 5304               	.LBB1735:
 5305               	.LBB1736:
 5306               	.LBB1737:
 5307               	.LBB1738:
 5308               	.LM746:
 5309 11d6 C801      		movw r24,r16
 5310               	.LVL290:
 5311               	/* #APP */
 5312               	 ;  105 "c:/winavr-20100110/lib/gcc/../../avr/include/util/delay_basic.h" 1
 5313 11d8 0197      		1: sbiw r24,1
 5314 11da 01F4      		brne 1b
 5315               	 ;  0 "" 2
 5316               	/* #NOAPP */
 5317               	.LBE1738:
 5318               	.LBE1737:
 5319               	.LBE1736:
 5320               	.LBE1735:
 5321               	.LM747:
 5322 11dc 1BB8      		out 43-32,__zero_reg__
 5323               	.LBE1734:
 5324               	.LBE1733:
 5325               	.LM748:
 5326 11de 80E0      		ldi r24,lo8(.LC35)
 5327 11e0 90E0      		ldi r25,hi8(.LC35)
 5328               	.LVL291:
 5329 11e2 0E94 0000 		call string
 5330               	.LVL292:
 5331               	.LBB1739:
 5332               	.LBB1740:
 5333               	.LM749:
 5334 11e6 80EC      		ldi r24,lo8(-64)
 5335 11e8 88B9      		out 40-32,r24
 5336               	.LM750:
 5337 11ea FBB8      		out 43-32,r15
 5338               	.LBB1741:
 5339               	.LBB1742:
 5340               	.LBB1743:
 5341               	.LBB1744:
 5342               	.LM751:
 5343 11ec C801      		movw r24,r16
 5344               	.LVL293:
 5345               	/* #APP */
 5346               	 ;  105 "c:/winavr-20100110/lib/gcc/../../avr/include/util/delay_basic.h" 1
 5347 11ee 0197      		1: sbiw r24,1
 5348 11f0 01F4      		brne 1b
 5349               	 ;  0 "" 2
 5350               	/* #NOAPP */
 5351               	.LBE1744:
 5352               	.LBE1743:
 5353               	.LBE1742:
 5354               	.LBE1741:
 5355               	.LM752:
 5356 11f2 1BB8      		out 43-32,__zero_reg__
 5357               	.LBE1740:
 5358               	.LBE1739:
 5359               	.LM753:
 5360 11f4 80E0      		ldi r24,lo8(.LC29)
 5361 11f6 90E0      		ldi r25,hi8(.LC29)
 5362               	.LVL294:
 5363 11f8 0E94 0000 		call string
 5364 11fc 80E2      		ldi r24,lo8(20000)
 5365 11fe 9EE4      		ldi r25,hi8(20000)
 5366               	.LVL295:
 5367               	.LBB1745:
 5368               	.LBB1746:
 5369               	.LBB1747:
 5370               	.LBB1748:
 5371               	.LM754:
 5372 1200 28EC      		ldi r18,lo8(200)
 5373 1202 30E0      		ldi r19,hi8(200)
 5374               	.L352:
 5375 1204 F901      		movw r30,r18
 5376               	.LVL296:
 5377               	/* #APP */
 5378               	 ;  105 "c:/winavr-20100110/lib/gcc/../../avr/include/util/delay_basic.h" 1
 5379 1206 3197      		1: sbiw r30,1
 5380 1208 01F4      		brne 1b
 5381               	 ;  0 "" 2
 5382               	/* #NOAPP */
 5383               	.LBE1748:
 5384               	.LBE1747:
 5385               	.LM755:
 5386 120a 0197      		sbiw r24,1
 5387               	.LM756:
 5388 120c 01F4      		brne .L352
 5389               	.LBE1746:
 5390               	.LBE1745:
 5391               	.LBB1749:
 5392               	.LBB1750:
 5393               	.LM757:
 5394 120e 81E0      		ldi r24,lo8(1)
 5395               	.LVL297:
 5396 1210 88B9      		out 40-32,r24
 5397               	.LM758:
 5398 1212 50E4      		ldi r21,lo8(64)
 5399 1214 F52E      		mov r15,r21
 5400 1216 FBB8      		out 43-32,r15
 5401               	.LBB1751:
 5402               	.LBB1752:
 5403               	.LBB1753:
 5404               	.LBB1754:
 5405               	.LM759:
 5406 1218 00ED      		ldi r16,lo8(2000)
 5407 121a 17E0      		ldi r17,hi8(2000)
 5408 121c C801      		movw r24,r16
 5409               	.LVL298:
 5410               	/* #APP */
 5411               	 ;  105 "c:/winavr-20100110/lib/gcc/../../avr/include/util/delay_basic.h" 1
 5412 121e 0197      		1: sbiw r24,1
 5413 1220 01F4      		brne 1b
 5414               	 ;  0 "" 2
 5415               	/* #NOAPP */
 5416               	.LBE1754:
 5417               	.LBE1753:
 5418               	.LBE1752:
 5419               	.LBE1751:
 5420               	.LM760:
 5421 1222 1BB8      		out 43-32,__zero_reg__
 5422               	.LBE1750:
 5423               	.LBE1749:
 5424               	.LBB1755:
 5425               	.LBB1756:
 5426               	.LM761:
 5427 1224 80E8      		ldi r24,lo8(-128)
 5428               	.LVL299:
 5429 1226 88B9      		out 40-32,r24
 5430               	.LM762:
 5431 1228 FBB8      		out 43-32,r15
 5432               	.LBB1757:
 5433               	.LBB1758:
 5434               	.LBB1759:
 5435               	.LBB1760:
 5436               	.LM763:
 5437 122a C801      		movw r24,r16
 5438               	.LVL300:
 5439               	/* #APP */
 5440               	 ;  105 "c:/winavr-20100110/lib/gcc/../../avr/include/util/delay_basic.h" 1
 5441 122c 0197      		1: sbiw r24,1
 5442 122e 01F4      		brne 1b
 5443               	 ;  0 "" 2
 5444               	/* #NOAPP */
 5445               	.LBE1760:
 5446               	.LBE1759:
 5447               	.LBE1758:
 5448               	.LBE1757:
 5449               	.LM764:
 5450 1230 1BB8      		out 43-32,__zero_reg__
 5451               	.LBE1756:
 5452               	.LBE1755:
 5453               	.LM765:
 5454 1232 80E0      		ldi r24,lo8(.LC37)
 5455 1234 90E0      		ldi r25,hi8(.LC37)
 5456               	.LVL301:
 5457 1236 0E94 0000 		call string
 5458               	.LVL302:
 5459               	.LBB1761:
 5460               	.LBB1762:
 5461               	.LM766:
 5462 123a 80EC      		ldi r24,lo8(-64)
 5463 123c 88B9      		out 40-32,r24
 5464               	.LM767:
 5465 123e FBB8      		out 43-32,r15
 5466               	.LBB1763:
 5467               	.LBB1764:
 5468               	.LBB1765:
 5469               	.LBB1766:
 5470               	.LM768:
 5471 1240 C801      		movw r24,r16
 5472               	.LVL303:
 5473               	/* #APP */
 5474               	 ;  105 "c:/winavr-20100110/lib/gcc/../../avr/include/util/delay_basic.h" 1
 5475 1242 0197      		1: sbiw r24,1
 5476 1244 01F4      		brne 1b
 5477               	 ;  0 "" 2
 5478               	/* #NOAPP */
 5479               	.LBE1766:
 5480               	.LBE1765:
 5481               	.LBE1764:
 5482               	.LBE1763:
 5483               	.LM769:
 5484 1246 1BB8      		out 43-32,__zero_reg__
 5485               	.LBE1762:
 5486               	.LBE1761:
 5487               	.LM770:
 5488 1248 80E0      		ldi r24,lo8(.LC38)
 5489 124a 90E0      		ldi r25,hi8(.LC38)
 5490               	.LVL304:
 5491 124c 0E94 0000 		call string
 5492 1250 80E2      		ldi r24,lo8(20000)
 5493 1252 9EE4      		ldi r25,hi8(20000)
 5494               	.LVL305:
 5495               	.LBB1767:
 5496               	.LBB1768:
 5497               	.LBB1769:
 5498               	.LBB1770:
 5499               	.LM771:
 5500 1254 28EC      		ldi r18,lo8(200)
 5501 1256 30E0      		ldi r19,hi8(200)
 5502               	.L353:
 5503 1258 F901      		movw r30,r18
 5504               	.LVL306:
 5505               	/* #APP */
 5506               	 ;  105 "c:/winavr-20100110/lib/gcc/../../avr/include/util/delay_basic.h" 1
 5507 125a 3197      		1: sbiw r30,1
 5508 125c 01F4      		brne 1b
 5509               	 ;  0 "" 2
 5510               	/* #NOAPP */
 5511               	.LBE1770:
 5512               	.LBE1769:
 5513               	.LM772:
 5514 125e 0197      		sbiw r24,1
 5515               	.LM773:
 5516 1260 01F4      		brne .L353
 5517 1262 00C0      		rjmp .L395
 5518               	.LVL307:
 5519               	.L351:
 5520               	.LBE1768:
 5521               	.LBE1767:
 5522               	.LM774:
 5523 1264 8091 0000 		lds r24,dk
 5524 1268 9091 0000 		lds r25,(dk)+1
 5525 126c C397      		sbiw r24,51
 5526 126e 01F0      		breq .+2
 5527 1270 00C0      		rjmp .L354
 5528               	.LBB1771:
 5529               	.LBB1772:
 5530               	.LM775:
 5531 1272 81E0      		ldi r24,lo8(1)
 5532 1274 88B9      		out 40-32,r24
 5533               	.LM776:
 5534 1276 40E4      		ldi r20,lo8(64)
 5535 1278 F42E      		mov r15,r20
 5536 127a FBB8      		out 43-32,r15
 5537               	.LBB1773:
 5538               	.LBB1774:
 5539               	.LBB1775:
 5540               	.LBB1776:
 5541               	.LM777:
 5542 127c 00ED      		ldi r16,lo8(2000)
 5543 127e 17E0      		ldi r17,hi8(2000)
 5544 1280 C801      		movw r24,r16
 5545               	.LVL308:
 5546               	/* #APP */
 5547               	 ;  105 "c:/winavr-20100110/lib/gcc/../../avr/include/util/delay_basic.h" 1
 5548 1282 0197      		1: sbiw r24,1
 5549 1284 01F4      		brne 1b
 5550               	 ;  0 "" 2
 5551               	/* #NOAPP */
 5552               	.LBE1776:
 5553               	.LBE1775:
 5554               	.LBE1774:
 5555               	.LBE1773:
 5556               	.LM778:
 5557 1286 1BB8      		out 43-32,__zero_reg__
 5558               	.LBE1772:
 5559               	.LBE1771:
 5560               	.LBB1777:
 5561               	.LBB1778:
 5562               	.LM779:
 5563 1288 80E8      		ldi r24,lo8(-128)
 5564               	.LVL309:
 5565 128a 88B9      		out 40-32,r24
 5566               	.LM780:
 5567 128c FBB8      		out 43-32,r15
 5568               	.LBB1779:
 5569               	.LBB1780:
 5570               	.LBB1781:
 5571               	.LBB1782:
 5572               	.LM781:
 5573 128e C801      		movw r24,r16
 5574               	.LVL310:
 5575               	/* #APP */
 5576               	 ;  105 "c:/winavr-20100110/lib/gcc/../../avr/include/util/delay_basic.h" 1
 5577 1290 0197      		1: sbiw r24,1
 5578 1292 01F4      		brne 1b
 5579               	 ;  0 "" 2
 5580               	/* #NOAPP */
 5581               	.LBE1782:
 5582               	.LBE1781:
 5583               	.LBE1780:
 5584               	.LBE1779:
 5585               	.LM782:
 5586 1294 1BB8      		out 43-32,__zero_reg__
 5587               	.LBE1778:
 5588               	.LBE1777:
 5589               	.LM783:
 5590 1296 80E0      		ldi r24,lo8(.LC35)
 5591 1298 90E0      		ldi r25,hi8(.LC35)
 5592               	.LVL311:
 5593 129a 0E94 0000 		call string
 5594               	.LVL312:
 5595               	.LBB1783:
 5596               	.LBB1784:
 5597               	.LM784:
 5598 129e 80EC      		ldi r24,lo8(-64)
 5599 12a0 88B9      		out 40-32,r24
 5600               	.LM785:
 5601 12a2 FBB8      		out 43-32,r15
 5602               	.LBB1785:
 5603               	.LBB1786:
 5604               	.LBB1787:
 5605               	.LBB1788:
 5606               	.LM786:
 5607 12a4 C801      		movw r24,r16
 5608               	.LVL313:
 5609               	/* #APP */
 5610               	 ;  105 "c:/winavr-20100110/lib/gcc/../../avr/include/util/delay_basic.h" 1
 5611 12a6 0197      		1: sbiw r24,1
 5612 12a8 01F4      		brne 1b
 5613               	 ;  0 "" 2
 5614               	/* #NOAPP */
 5615               	.LBE1788:
 5616               	.LBE1787:
 5617               	.LBE1786:
 5618               	.LBE1785:
 5619               	.LM787:
 5620 12aa 1BB8      		out 43-32,__zero_reg__
 5621               	.LBE1784:
 5622               	.LBE1783:
 5623               	.LM788:
 5624 12ac 80E0      		ldi r24,lo8(.LC30)
 5625 12ae 90E0      		ldi r25,hi8(.LC30)
 5626               	.LVL314:
 5627 12b0 0E94 0000 		call string
 5628 12b4 80E2      		ldi r24,lo8(20000)
 5629 12b6 9EE4      		ldi r25,hi8(20000)
 5630               	.LVL315:
 5631               	.LBB1789:
 5632               	.LBB1790:
 5633               	.LBB1791:
 5634               	.LBB1792:
 5635               	.LM789:
 5636 12b8 28EC      		ldi r18,lo8(200)
 5637 12ba 30E0      		ldi r19,hi8(200)
 5638               	.L355:
 5639 12bc F901      		movw r30,r18
 5640               	.LVL316:
 5641               	/* #APP */
 5642               	 ;  105 "c:/winavr-20100110/lib/gcc/../../avr/include/util/delay_basic.h" 1
 5643 12be 3197      		1: sbiw r30,1
 5644 12c0 01F4      		brne 1b
 5645               	 ;  0 "" 2
 5646               	/* #NOAPP */
 5647               	.LBE1792:
 5648               	.LBE1791:
 5649               	.LM790:
 5650 12c2 0197      		sbiw r24,1
 5651               	.LM791:
 5652 12c4 01F4      		brne .L355
 5653               	.LBE1790:
 5654               	.LBE1789:
 5655               	.LBB1793:
 5656               	.LBB1794:
 5657               	.LM792:
 5658 12c6 81E0      		ldi r24,lo8(1)
 5659               	.LVL317:
 5660 12c8 88B9      		out 40-32,r24
 5661               	.LM793:
 5662 12ca 30E4      		ldi r19,lo8(64)
 5663 12cc F32E      		mov r15,r19
 5664 12ce FBB8      		out 43-32,r15
 5665               	.LBB1795:
 5666               	.LBB1796:
 5667               	.LBB1797:
 5668               	.LBB1798:
 5669               	.LM794:
 5670 12d0 00ED      		ldi r16,lo8(2000)
 5671 12d2 17E0      		ldi r17,hi8(2000)
 5672 12d4 C801      		movw r24,r16
 5673               	.LVL318:
 5674               	/* #APP */
 5675               	 ;  105 "c:/winavr-20100110/lib/gcc/../../avr/include/util/delay_basic.h" 1
 5676 12d6 0197      		1: sbiw r24,1
 5677 12d8 01F4      		brne 1b
 5678               	 ;  0 "" 2
 5679               	/* #NOAPP */
 5680               	.LBE1798:
 5681               	.LBE1797:
 5682               	.LBE1796:
 5683               	.LBE1795:
 5684               	.LM795:
 5685 12da 1BB8      		out 43-32,__zero_reg__
 5686               	.LBE1794:
 5687               	.LBE1793:
 5688               	.LBB1799:
 5689               	.LBB1800:
 5690               	.LM796:
 5691 12dc 80E8      		ldi r24,lo8(-128)
 5692               	.LVL319:
 5693 12de 88B9      		out 40-32,r24
 5694               	.LM797:
 5695 12e0 FBB8      		out 43-32,r15
 5696               	.LBB1801:
 5697               	.LBB1802:
 5698               	.LBB1803:
 5699               	.LBB1804:
 5700               	.LM798:
 5701 12e2 C801      		movw r24,r16
 5702               	.LVL320:
 5703               	/* #APP */
 5704               	 ;  105 "c:/winavr-20100110/lib/gcc/../../avr/include/util/delay_basic.h" 1
 5705 12e4 0197      		1: sbiw r24,1
 5706 12e6 01F4      		brne 1b
 5707               	 ;  0 "" 2
 5708               	/* #NOAPP */
 5709               	.LBE1804:
 5710               	.LBE1803:
 5711               	.LBE1802:
 5712               	.LBE1801:
 5713               	.LM799:
 5714 12e8 1BB8      		out 43-32,__zero_reg__
 5715               	.LBE1800:
 5716               	.LBE1799:
 5717               	.LM800:
 5718 12ea 80E0      		ldi r24,lo8(.LC37)
 5719 12ec 90E0      		ldi r25,hi8(.LC37)
 5720               	.LVL321:
 5721 12ee 0E94 0000 		call string
 5722               	.LVL322:
 5723               	.LBB1805:
 5724               	.LBB1806:
 5725               	.LM801:
 5726 12f2 80EC      		ldi r24,lo8(-64)
 5727 12f4 88B9      		out 40-32,r24
 5728               	.LM802:
 5729 12f6 FBB8      		out 43-32,r15
 5730               	.LBB1807:
 5731               	.LBB1808:
 5732               	.LBB1809:
 5733               	.LBB1810:
 5734               	.LM803:
 5735 12f8 C801      		movw r24,r16
 5736               	.LVL323:
 5737               	/* #APP */
 5738               	 ;  105 "c:/winavr-20100110/lib/gcc/../../avr/include/util/delay_basic.h" 1
 5739 12fa 0197      		1: sbiw r24,1
 5740 12fc 01F4      		brne 1b
 5741               	 ;  0 "" 2
 5742               	/* #NOAPP */
 5743               	.LBE1810:
 5744               	.LBE1809:
 5745               	.LBE1808:
 5746               	.LBE1807:
 5747               	.LM804:
 5748 12fe 1BB8      		out 43-32,__zero_reg__
 5749               	.LBE1806:
 5750               	.LBE1805:
 5751               	.LM805:
 5752 1300 80E0      		ldi r24,lo8(.LC38)
 5753 1302 90E0      		ldi r25,hi8(.LC38)
 5754               	.LVL324:
 5755 1304 0E94 0000 		call string
 5756 1308 80E2      		ldi r24,lo8(20000)
 5757 130a 9EE4      		ldi r25,hi8(20000)
 5758               	.LVL325:
 5759               	.LBB1811:
 5760               	.LBB1812:
 5761               	.LBB1813:
 5762               	.LBB1814:
 5763               	.LM806:
 5764 130c 28EC      		ldi r18,lo8(200)
 5765 130e 30E0      		ldi r19,hi8(200)
 5766               	.L356:
 5767 1310 F901      		movw r30,r18
 5768               	.LVL326:
 5769               	/* #APP */
 5770               	 ;  105 "c:/winavr-20100110/lib/gcc/../../avr/include/util/delay_basic.h" 1
 5771 1312 3197      		1: sbiw r30,1
 5772 1314 01F4      		brne 1b
 5773               	 ;  0 "" 2
 5774               	/* #NOAPP */
 5775               	.LBE1814:
 5776               	.LBE1813:
 5777               	.LM807:
 5778 1316 0197      		sbiw r24,1
 5779               	.LM808:
 5780 1318 01F4      		brne .L356
 5781               	.LVL327:
 5782               	.L395:
 5783               	.LBE1812:
 5784               	.LBE1811:
 5785               	.LM809:
 5786 131a 80EA      		ldi r24,lo8(-96)
 5787               	.LVL328:
 5788 131c 85B9      		out 37-32,r24
 5789               	.LVL329:
 5790               	.L396:
 5791 131e 6624      		clr r6
 5792 1320 7724      		clr r7
 5793               	.LM810:
 5794 1322 4E01      		movw r8,r28
 5795 1324 0894      		sec
 5796 1326 811C      		adc r8,__zero_reg__
 5797 1328 911C      		adc r9,__zero_reg__
 5798               	.LBB1815:
 5799               	.LBB1368:
 5800               	.LBB1367:
 5801               	.LBB1366:
 5802               	.LM811:
 5803 132a A8EC      		ldi r26,lo8(200)
 5804 132c 4A2E      		mov r4,r26
 5805 132e 512C      		mov r5,__zero_reg__
 5806               	.LBE1366:
 5807               	.LBE1367:
 5808               	.LBE1368:
 5809               	.LBE1815:
 5810               	.LBB1816:
 5811               	.LBB1379:
 5812               	.LM812:
 5813 1330 AA24      		clr r10
 5814 1332 A394      		inc r10
 5815               	.LM813:
 5816 1334 F0E4      		ldi r31,lo8(64)
 5817 1336 BF2E      		mov r11,r31
 5818               	.LBB1378:
 5819               	.LBB1377:
 5820               	.LBB1376:
 5821               	.LBB1375:
 5822               	.LM814:
 5823 1338 E0ED      		ldi r30,lo8(2000)
 5824 133a EE2E      		mov r14,r30
 5825 133c E7E0      		ldi r30,hi8(2000)
 5826 133e FE2E      		mov r15,r30
 5827               	.LVL330:
 5828               	.LBE1375:
 5829               	.LBE1376:
 5830               	.LBE1377:
 5831               	.LBE1378:
 5832               	.LBE1379:
 5833               	.LBE1816:
 5834               	.LM815:
 5835 1340 7DE0      		ldi r23,lo8(13)
 5836 1342 272E      		mov r2,r23
 5837 1344 312C      		mov r3,__zero_reg__
 5838 1346 2C0E      		add r2,r28
 5839 1348 3D1E      		adc r3,r29
 5840 134a 00C0      		rjmp .L393
 5841               	.LVL331:
 5842               	.L354:
 5843               	.LM816:
 5844 134c 8091 0000 		lds r24,dk
 5845 1350 9091 0000 		lds r25,(dk)+1
 5846 1354 C097      		sbiw r24,48
 5847 1356 01F4      		brne .L397
 5848               	.LBB1817:
 5849               	.LBB1818:
 5850               	.LM817:
 5851 1358 81E0      		ldi r24,lo8(1)
 5852 135a 88B9      		out 40-32,r24
 5853               	.LM818:
 5854 135c 20E4      		ldi r18,lo8(64)
 5855 135e F22E      		mov r15,r18
 5856 1360 FBB8      		out 43-32,r15
 5857               	.LBB1819:
 5858               	.LBB1820:
 5859               	.LBB1821:
 5860               	.LBB1822:
 5861               	.LM819:
 5862 1362 00ED      		ldi r16,lo8(2000)
 5863 1364 17E0      		ldi r17,hi8(2000)
 5864 1366 C801      		movw r24,r16
 5865               	.LVL332:
 5866               	/* #APP */
 5867               	 ;  105 "c:/winavr-20100110/lib/gcc/../../avr/include/util/delay_basic.h" 1
 5868 1368 0197      		1: sbiw r24,1
 5869 136a 01F4      		brne 1b
 5870               	 ;  0 "" 2
 5871               	/* #NOAPP */
 5872               	.LBE1822:
 5873               	.LBE1821:
 5874               	.LBE1820:
 5875               	.LBE1819:
 5876               	.LM820:
 5877 136c 1BB8      		out 43-32,__zero_reg__
 5878               	.LBE1818:
 5879               	.LBE1817:
 5880               	.LBB1823:
 5881               	.LBB1824:
 5882               	.LM821:
 5883 136e 80E8      		ldi r24,lo8(-128)
 5884               	.LVL333:
 5885 1370 88B9      		out 40-32,r24
 5886               	.LM822:
 5887 1372 FBB8      		out 43-32,r15
 5888               	.LBB1825:
 5889               	.LBB1826:
 5890               	.LBB1827:
 5891               	.LBB1828:
 5892               	.LM823:
 5893 1374 C801      		movw r24,r16
 5894               	.LVL334:
 5895               	/* #APP */
 5896               	 ;  105 "c:/winavr-20100110/lib/gcc/../../avr/include/util/delay_basic.h" 1
 5897 1376 0197      		1: sbiw r24,1
 5898 1378 01F4      		brne 1b
 5899               	 ;  0 "" 2
 5900               	/* #NOAPP */
 5901               	.LBE1828:
 5902               	.LBE1827:
 5903               	.LBE1826:
 5904               	.LBE1825:
 5905               	.LM824:
 5906 137a 1BB8      		out 43-32,__zero_reg__
 5907               	.LBE1824:
 5908               	.LBE1823:
 5909               	.LM825:
 5910 137c 80E0      		ldi r24,lo8(.LC39)
 5911 137e 90E0      		ldi r25,hi8(.LC39)
 5912               	.LVL335:
 5913 1380 0E94 0000 		call string
 5914               	.LVL336:
 5915               	.LBB1829:
 5916               	.LBB1830:
 5917               	.LM826:
 5918 1384 80EC      		ldi r24,lo8(-64)
 5919 1386 88B9      		out 40-32,r24
 5920               	.LM827:
 5921 1388 FBB8      		out 43-32,r15
 5922               	.LBB1831:
 5923               	.LBB1832:
 5924               	.LBB1833:
 5925               	.LBB1834:
 5926               	.LM828:
 5927 138a C801      		movw r24,r16
 5928               	.LVL337:
 5929               	/* #APP */
 5930               	 ;  105 "c:/winavr-20100110/lib/gcc/../../avr/include/util/delay_basic.h" 1
 5931 138c 0197      		1: sbiw r24,1
 5932 138e 01F4      		brne 1b
 5933               	 ;  0 "" 2
 5934               	/* #NOAPP */
 5935               	.LBE1834:
 5936               	.LBE1833:
 5937               	.LBE1832:
 5938               	.LBE1831:
 5939               	.LM829:
 5940 1390 1BB8      		out 43-32,__zero_reg__
 5941               	.LBE1830:
 5942               	.LBE1829:
 5943               	.LM830:
 5944 1392 80E0      		ldi r24,lo8(.LC40)
 5945 1394 90E0      		ldi r25,hi8(.LC40)
 5946               	.LVL338:
 5947 1396 0E94 0000 		call string
 5948 139a 80E3      		ldi r24,lo8(30000)
 5949 139c 95E7      		ldi r25,hi8(30000)
 5950               	.LVL339:
 5951               	.L357:
 5952               	.LBB1835:
 5953               	.LBB1836:
 5954               	.LBB1837:
 5955               	.LBB1838:
 5956               	.LM831:
 5957 139e F401      		movw r30,r8
 5958               	.LVL340:
 5959               	/* #APP */
 5960               	 ;  105 "c:/winavr-20100110/lib/gcc/../../avr/include/util/delay_basic.h" 1
 5961 13a0 3197      		1: sbiw r30,1
 5962 13a2 01F4      		brne 1b
 5963               	 ;  0 "" 2
 5964               	/* #NOAPP */
 5965               	.LBE1838:
 5966               	.LBE1837:
 5967               	.LM832:
 5968 13a4 0197      		sbiw r24,1
 5969               	.LM833:
 5970 13a6 01F4      		brne .L357
 5971               	.LBE1836:
 5972               	.LBE1835:
 5973               	.LM834:
 5974 13a8 80EA      		ldi r24,lo8(-96)
 5975               	.LVL341:
 5976 13aa 85B9      		out 37-32,r24
 5977               	.LVL342:
 5978               	.L397:
 5979 13ac 80E0      		ldi r24,lo8(0)
 5980 13ae 90E0      		ldi r25,hi8(0)
 5981               	.LVL343:
 5982 13b0 00C0      		rjmp .L392
 5983               	.LFE28:
 5985               	.global	genimg_ack
 5986               		.data
 5989               	genimg_ack:
 5990 0162 EF        		.byte	-17
 5991 0163 01        		.byte	1
 5992 0164 FF        		.byte	-1
 5993 0165 FF        		.byte	-1
 5994 0166 FF        		.byte	-1
 5995 0167 FF        		.byte	-1
 5996 0168 07        		.byte	7
 5997 0169 00        		.byte	0
 5998 016a 03        		.byte	3
 5999 016b 00        		.byte	0
 6000 016c 00        		.byte	0
 6001 016d 0A        		.byte	10
 6002               	.global	genchar1_ack
 6005               	genchar1_ack:
 6006 016e EF        		.byte	-17
 6007 016f 01        		.byte	1
 6008 0170 FF        		.byte	-1
 6009 0171 FF        		.byte	-1
 6010 0172 FF        		.byte	-1
 6011 0173 FF        		.byte	-1
 6012 0174 07        		.byte	7
 6013 0175 00        		.byte	0
 6014 0176 03        		.byte	3
 6015 0177 00        		.byte	0
 6016 0178 00        		.byte	0
 6017 0179 0A        		.byte	10
 6018               	.global	genchar2_ack
 6021               	genchar2_ack:
 6022 017a EF        		.byte	-17
 6023 017b 01        		.byte	1
 6024 017c FF        		.byte	-1
 6025 017d FF        		.byte	-1
 6026 017e FF        		.byte	-1
 6027 017f FF        		.byte	-1
 6028 0180 07        		.byte	7
 6029 0181 00        		.byte	0
 6030 0182 03        		.byte	3
 6031 0183 00        		.byte	0
 6032 0184 00        		.byte	0
 6033 0185 0A        		.byte	10
 6034               	.global	gentemp_ack
 6037               	gentemp_ack:
 6038 0186 EF        		.byte	-17
 6039 0187 01        		.byte	1
 6040 0188 FF        		.byte	-1
 6041 0189 FF        		.byte	-1
 6042 018a FF        		.byte	-1
 6043 018b FF        		.byte	-1
 6044 018c 07        		.byte	7
 6045 018d 00        		.byte	0
 6046 018e 03        		.byte	3
 6047 018f 00        		.byte	0
 6048 0190 00        		.byte	0
 6049 0191 0A        		.byte	10
 6050               	.global	emptylib_ack
 6053               	emptylib_ack:
 6054 0192 EF        		.byte	-17
 6055 0193 01        		.byte	1
 6056 0194 FF        		.byte	-1
 6057 0195 FF        		.byte	-1
 6058 0196 FF        		.byte	-1
 6059 0197 FF        		.byte	-1
 6060 0198 07        		.byte	7
 6061 0199 00        		.byte	0
 6062 019a 03        		.byte	3
 6063 019b 00        		.byte	0
 6064 019c 00        		.byte	0
 6065 019d 0A        		.byte	10
 6066               	.global	deletetemp_ack
 6069               	deletetemp_ack:
 6070 019e EF        		.byte	-17
 6071 019f 01        		.byte	1
 6072 01a0 FF        		.byte	-1
 6073 01a1 FF        		.byte	-1
 6074 01a2 FF        		.byte	-1
 6075 01a3 FF        		.byte	-1
 6076 01a4 07        		.byte	7
 6077 01a5 00        		.byte	0
 6078 01a6 03        		.byte	3
 6079 01a7 00        		.byte	0
 6080 01a8 00        		.byte	0
 6081 01a9 0A        		.byte	10
 6082               	.global	ack
 6083               	.global	ack
 6084               		.section .bss
 6087               	ack:
 6088 0000 0000 0000 		.skip 12,0
 6088      0000 0000 
 6088      0000 0000 
 6089               	.global	i
 6090               	.global	i
 6093               	i:
 6094 000c 0000      		.skip 2,0
 6095               	.global	it
 6096               	.global	it
 6099               	it:
 6100 000e 0000      		.skip 2,0
 6101               	.global	one_time
 6102               	.global	one_time
 6105               	one_time:
 6106 0010 0000      		.skip 2,0
 6107               	.global	pk
 6108               	.global	pk
 6111               	pk:
 6112 0012 0000      		.skip 2,0
 6113               	.global	dk
 6114               	.global	dk
 6117               	dk:
 6118 0014 0000      		.skip 2,0
 6319               	.Letext0:
DEFINED SYMBOLS
                            *ABS*:00000000 main.c
C:\Users\user\AppData\Local\Temp/ccMtWKeW.s:2      *ABS*:0000003f __SREG__
C:\Users\user\AppData\Local\Temp/ccMtWKeW.s:3      *ABS*:0000003e __SP_H__
C:\Users\user\AppData\Local\Temp/ccMtWKeW.s:4      *ABS*:0000003d __SP_L__
C:\Users\user\AppData\Local\Temp/ccMtWKeW.s:5      *ABS*:00000034 __CCP__
C:\Users\user\AppData\Local\Temp/ccMtWKeW.s:6      *ABS*:00000000 __tmp_reg__
C:\Users\user\AppData\Local\Temp/ccMtWKeW.s:7      *ABS*:00000001 __zero_reg__
C:\Users\user\AppData\Local\Temp/ccMtWKeW.s:18     .text:00000000 uartinit
C:\Users\user\AppData\Local\Temp/ccMtWKeW.s:39     .text:00000012 uart_trans
C:\Users\user\AppData\Local\Temp/ccMtWKeW.s:61     .text:00000022 stransmit0
C:\Users\user\AppData\Local\Temp/ccMtWKeW.s:100    .text:0000003c gentempnum
C:\Users\user\AppData\Local\Temp/ccMtWKeW.s:281    .text:000000f4 emptylib
C:\Users\user\AppData\Local\Temp/ccMtWKeW.s:462    .text:000001ac genimg
C:\Users\user\AppData\Local\Temp/ccMtWKeW.s:643    .text:00000264 genchar1
C:\Users\user\AppData\Local\Temp/ccMtWKeW.s:836    .text:0000032a genchar2
C:\Users\user\AppData\Local\Temp/ccMtWKeW.s:1029   .text:000003f0 gentemp
C:\Users\user\AppData\Local\Temp/ccMtWKeW.s:1210   .text:000004a8 searchfing
C:\Users\user\AppData\Local\Temp/ccMtWKeW.s:1448   .text:000005a0 deletetemp
C:\Users\user\AppData\Local\Temp/ccMtWKeW.s:1675   .text:0000068c cmd
C:\Users\user\AppData\Local\Temp/ccMtWKeW.s:1714   .text:0000069e lcdinit
C:\Users\user\AppData\Local\Temp/ccMtWKeW.s:1770   .text:000006d2 data
C:\Users\user\AppData\Local\Temp/ccMtWKeW.s:1876   .text:00000704 string
C:\Users\user\AppData\Local\Temp/ccMtWKeW.s:1906   .text:0000071e get_adc
C:\Users\user\AppData\Local\Temp/ccMtWKeW.s:1971   .text:00000738 get_touch
C:\Users\user\AppData\Local\Temp/ccMtWKeW.s:2436   .text:000008f4 uartinit_1
C:\Users\user\AppData\Local\Temp/ccMtWKeW.s:2457   .text:00000906 uart_trans1
C:\Users\user\AppData\Local\Temp/ccMtWKeW.s:2479   .text:00000916 stransmit1
C:\Users\user\AppData\Local\Temp/ccMtWKeW.s:2522   .text:00000930 __vector_28
C:\Users\user\AppData\Local\Temp/ccMtWKeW.s:6117   .bss:00000014 dk
C:\Users\user\AppData\Local\Temp/ccMtWKeW.s:2706   .text:000009e6 __vector_20
C:\Users\user\AppData\Local\Temp/ccMtWKeW.s:6099   .bss:0000000e it
C:\Users\user\AppData\Local\Temp/ccMtWKeW.s:6087   .bss:00000000 ack
C:\Users\user\AppData\Local\Temp/ccMtWKeW.s:6111   .bss:00000012 pk
C:\Users\user\AppData\Local\Temp/ccMtWKeW.s:2822   .text:00000a4e main
C:\Users\user\AppData\Local\Temp/ccMtWKeW.s:6093   .bss:0000000c i
C:\Users\user\AppData\Local\Temp/ccMtWKeW.s:5989   .data:00000162 genimg_ack
C:\Users\user\AppData\Local\Temp/ccMtWKeW.s:6105   .bss:00000010 one_time
C:\Users\user\AppData\Local\Temp/ccMtWKeW.s:6005   .data:0000016e genchar1_ack
C:\Users\user\AppData\Local\Temp/ccMtWKeW.s:6021   .data:0000017a genchar2_ack
C:\Users\user\AppData\Local\Temp/ccMtWKeW.s:6037   .data:00000186 gentemp_ack
C:\Users\user\AppData\Local\Temp/ccMtWKeW.s:6053   .data:00000192 emptylib_ack
C:\Users\user\AppData\Local\Temp/ccMtWKeW.s:6069   .data:0000019e deletetemp_ack

UNDEFINED SYMBOLS
strncmp
__udivmodqi4
__udivmodhi4
__do_copy_data
__do_clear_bss
